
kernel.elf:     file format elf32-i386


Disassembly of section .multiboot2:

00100000 <multiboot_header_start>:
  100000:	d6                   	(bad)
  100001:	50                   	push   eax
  100002:	52                   	push   edx
  100003:	e8 00 00 00 00       	call   100008 <multiboot_header_start+0x8>
  100008:	28 00                	sub    BYTE PTR [eax],al
  10000a:	00 00                	add    BYTE PTR [eax],al
  10000c:	02 af ad 17 06 00    	add    ch,BYTE PTR [edi+0x617ad]
  100012:	00 00                	add    BYTE PTR [eax],al
  100014:	18 00                	sbb    BYTE PTR [eax],al
  100016:	00 00                	add    BYTE PTR [eax],al
  100018:	14 00                	adc    al,0x0
	...
  100022:	00 00                	add    BYTE PTR [eax],al
  100024:	08 00                	or     BYTE PTR [eax],al
	...

Disassembly of section .boot:

00101000 <multiboot_magic>:
  101000:	00 00                	add    BYTE PTR [eax],al
	...

00101004 <multiboot_info_ptr>:
  101004:	00 00                	add    BYTE PTR [eax],al
  101006:	00 00                	add    BYTE PTR [eax],al
  101008:	90                   	nop
  101009:	90                   	nop
  10100a:	90                   	nop
  10100b:	90                   	nop
  10100c:	90                   	nop
  10100d:	90                   	nop
  10100e:	90                   	nop
  10100f:	90                   	nop
  101010:	90                   	nop
  101011:	90                   	nop
  101012:	90                   	nop
  101013:	90                   	nop
  101014:	90                   	nop
  101015:	90                   	nop
  101016:	90                   	nop
  101017:	90                   	nop
  101018:	90                   	nop
  101019:	90                   	nop
  10101a:	90                   	nop
  10101b:	90                   	nop
  10101c:	90                   	nop
  10101d:	90                   	nop
  10101e:	90                   	nop
  10101f:	90                   	nop
  101020:	90                   	nop
  101021:	90                   	nop
  101022:	90                   	nop
  101023:	90                   	nop
  101024:	90                   	nop
  101025:	90                   	nop
  101026:	90                   	nop
  101027:	90                   	nop
  101028:	90                   	nop
  101029:	90                   	nop
  10102a:	90                   	nop
  10102b:	90                   	nop
  10102c:	90                   	nop
  10102d:	90                   	nop
  10102e:	90                   	nop
  10102f:	90                   	nop
  101030:	90                   	nop
  101031:	90                   	nop
  101032:	90                   	nop
  101033:	90                   	nop
  101034:	90                   	nop
  101035:	90                   	nop
  101036:	90                   	nop
  101037:	90                   	nop
  101038:	90                   	nop
  101039:	90                   	nop
  10103a:	90                   	nop
  10103b:	90                   	nop
  10103c:	90                   	nop
  10103d:	90                   	nop
  10103e:	90                   	nop
  10103f:	90                   	nop
  101040:	90                   	nop
  101041:	90                   	nop
  101042:	90                   	nop
  101043:	90                   	nop
  101044:	90                   	nop
  101045:	90                   	nop
  101046:	90                   	nop
  101047:	90                   	nop
  101048:	90                   	nop
  101049:	90                   	nop
  10104a:	90                   	nop
  10104b:	90                   	nop
  10104c:	90                   	nop
  10104d:	90                   	nop
  10104e:	90                   	nop
  10104f:	90                   	nop
  101050:	90                   	nop
  101051:	90                   	nop
  101052:	90                   	nop
  101053:	90                   	nop
  101054:	90                   	nop
  101055:	90                   	nop
  101056:	90                   	nop
  101057:	90                   	nop
  101058:	90                   	nop
  101059:	90                   	nop
  10105a:	90                   	nop
  10105b:	90                   	nop
  10105c:	90                   	nop
  10105d:	90                   	nop
  10105e:	90                   	nop
  10105f:	90                   	nop
  101060:	90                   	nop
  101061:	90                   	nop
  101062:	90                   	nop
  101063:	90                   	nop
  101064:	90                   	nop
  101065:	90                   	nop
  101066:	90                   	nop
  101067:	90                   	nop
  101068:	90                   	nop
  101069:	90                   	nop
  10106a:	90                   	nop
  10106b:	90                   	nop
  10106c:	90                   	nop
  10106d:	90                   	nop
  10106e:	90                   	nop
  10106f:	90                   	nop
  101070:	90                   	nop
  101071:	90                   	nop
  101072:	90                   	nop
  101073:	90                   	nop
  101074:	90                   	nop
  101075:	90                   	nop
  101076:	90                   	nop
  101077:	90                   	nop
  101078:	90                   	nop
  101079:	90                   	nop
  10107a:	90                   	nop
  10107b:	90                   	nop
  10107c:	90                   	nop
  10107d:	90                   	nop
  10107e:	90                   	nop
  10107f:	90                   	nop
  101080:	90                   	nop
  101081:	90                   	nop
  101082:	90                   	nop
  101083:	90                   	nop
  101084:	90                   	nop
  101085:	90                   	nop
  101086:	90                   	nop
  101087:	90                   	nop
  101088:	90                   	nop
  101089:	90                   	nop
  10108a:	90                   	nop
  10108b:	90                   	nop
  10108c:	90                   	nop
  10108d:	90                   	nop
  10108e:	90                   	nop
  10108f:	90                   	nop
  101090:	90                   	nop
  101091:	90                   	nop
  101092:	90                   	nop
  101093:	90                   	nop
  101094:	90                   	nop
  101095:	90                   	nop
  101096:	90                   	nop
  101097:	90                   	nop
  101098:	90                   	nop
  101099:	90                   	nop
  10109a:	90                   	nop
  10109b:	90                   	nop
  10109c:	90                   	nop
  10109d:	90                   	nop
  10109e:	90                   	nop
  10109f:	90                   	nop
  1010a0:	90                   	nop
  1010a1:	90                   	nop
  1010a2:	90                   	nop
  1010a3:	90                   	nop
  1010a4:	90                   	nop
  1010a5:	90                   	nop
  1010a6:	90                   	nop
  1010a7:	90                   	nop
  1010a8:	90                   	nop
  1010a9:	90                   	nop
  1010aa:	90                   	nop
  1010ab:	90                   	nop
  1010ac:	90                   	nop
  1010ad:	90                   	nop
  1010ae:	90                   	nop
  1010af:	90                   	nop
  1010b0:	90                   	nop
  1010b1:	90                   	nop
  1010b2:	90                   	nop
  1010b3:	90                   	nop
  1010b4:	90                   	nop
  1010b5:	90                   	nop
  1010b6:	90                   	nop
  1010b7:	90                   	nop
  1010b8:	90                   	nop
  1010b9:	90                   	nop
  1010ba:	90                   	nop
  1010bb:	90                   	nop
  1010bc:	90                   	nop
  1010bd:	90                   	nop
  1010be:	90                   	nop
  1010bf:	90                   	nop
  1010c0:	90                   	nop
  1010c1:	90                   	nop
  1010c2:	90                   	nop
  1010c3:	90                   	nop
  1010c4:	90                   	nop
  1010c5:	90                   	nop
  1010c6:	90                   	nop
  1010c7:	90                   	nop
  1010c8:	90                   	nop
  1010c9:	90                   	nop
  1010ca:	90                   	nop
  1010cb:	90                   	nop
  1010cc:	90                   	nop
  1010cd:	90                   	nop
  1010ce:	90                   	nop
  1010cf:	90                   	nop
  1010d0:	90                   	nop
  1010d1:	90                   	nop
  1010d2:	90                   	nop
  1010d3:	90                   	nop
  1010d4:	90                   	nop
  1010d5:	90                   	nop
  1010d6:	90                   	nop
  1010d7:	90                   	nop
  1010d8:	90                   	nop
  1010d9:	90                   	nop
  1010da:	90                   	nop
  1010db:	90                   	nop
  1010dc:	90                   	nop
  1010dd:	90                   	nop
  1010de:	90                   	nop
  1010df:	90                   	nop
  1010e0:	90                   	nop
  1010e1:	90                   	nop
  1010e2:	90                   	nop
  1010e3:	90                   	nop
  1010e4:	90                   	nop
  1010e5:	90                   	nop
  1010e6:	90                   	nop
  1010e7:	90                   	nop
  1010e8:	90                   	nop
  1010e9:	90                   	nop
  1010ea:	90                   	nop
  1010eb:	90                   	nop
  1010ec:	90                   	nop
  1010ed:	90                   	nop
  1010ee:	90                   	nop
  1010ef:	90                   	nop
  1010f0:	90                   	nop
  1010f1:	90                   	nop
  1010f2:	90                   	nop
  1010f3:	90                   	nop
  1010f4:	90                   	nop
  1010f5:	90                   	nop
  1010f6:	90                   	nop
  1010f7:	90                   	nop
  1010f8:	90                   	nop
  1010f9:	90                   	nop
  1010fa:	90                   	nop
  1010fb:	90                   	nop
  1010fc:	90                   	nop
  1010fd:	90                   	nop
  1010fe:	90                   	nop
  1010ff:	90                   	nop
  101100:	90                   	nop
  101101:	90                   	nop
  101102:	90                   	nop
  101103:	90                   	nop
  101104:	90                   	nop
  101105:	90                   	nop
  101106:	90                   	nop
  101107:	90                   	nop
  101108:	90                   	nop
  101109:	90                   	nop
  10110a:	90                   	nop
  10110b:	90                   	nop
  10110c:	90                   	nop
  10110d:	90                   	nop
  10110e:	90                   	nop
  10110f:	90                   	nop
  101110:	90                   	nop
  101111:	90                   	nop
  101112:	90                   	nop
  101113:	90                   	nop
  101114:	90                   	nop
  101115:	90                   	nop
  101116:	90                   	nop
  101117:	90                   	nop
  101118:	90                   	nop
  101119:	90                   	nop
  10111a:	90                   	nop
  10111b:	90                   	nop
  10111c:	90                   	nop
  10111d:	90                   	nop
  10111e:	90                   	nop
  10111f:	90                   	nop
  101120:	90                   	nop
  101121:	90                   	nop
  101122:	90                   	nop
  101123:	90                   	nop
  101124:	90                   	nop
  101125:	90                   	nop
  101126:	90                   	nop
  101127:	90                   	nop
  101128:	90                   	nop
  101129:	90                   	nop
  10112a:	90                   	nop
  10112b:	90                   	nop
  10112c:	90                   	nop
  10112d:	90                   	nop
  10112e:	90                   	nop
  10112f:	90                   	nop
  101130:	90                   	nop
  101131:	90                   	nop
  101132:	90                   	nop
  101133:	90                   	nop
  101134:	90                   	nop
  101135:	90                   	nop
  101136:	90                   	nop
  101137:	90                   	nop
  101138:	90                   	nop
  101139:	90                   	nop
  10113a:	90                   	nop
  10113b:	90                   	nop
  10113c:	90                   	nop
  10113d:	90                   	nop
  10113e:	90                   	nop
  10113f:	90                   	nop
  101140:	90                   	nop
  101141:	90                   	nop
  101142:	90                   	nop
  101143:	90                   	nop
  101144:	90                   	nop
  101145:	90                   	nop
  101146:	90                   	nop
  101147:	90                   	nop
  101148:	90                   	nop
  101149:	90                   	nop
  10114a:	90                   	nop
  10114b:	90                   	nop
  10114c:	90                   	nop
  10114d:	90                   	nop
  10114e:	90                   	nop
  10114f:	90                   	nop
  101150:	90                   	nop
  101151:	90                   	nop
  101152:	90                   	nop
  101153:	90                   	nop
  101154:	90                   	nop
  101155:	90                   	nop
  101156:	90                   	nop
  101157:	90                   	nop
  101158:	90                   	nop
  101159:	90                   	nop
  10115a:	90                   	nop
  10115b:	90                   	nop
  10115c:	90                   	nop
  10115d:	90                   	nop
  10115e:	90                   	nop
  10115f:	90                   	nop
  101160:	90                   	nop
  101161:	90                   	nop
  101162:	90                   	nop
  101163:	90                   	nop
  101164:	90                   	nop
  101165:	90                   	nop
  101166:	90                   	nop
  101167:	90                   	nop
  101168:	90                   	nop
  101169:	90                   	nop
  10116a:	90                   	nop
  10116b:	90                   	nop
  10116c:	90                   	nop
  10116d:	90                   	nop
  10116e:	90                   	nop
  10116f:	90                   	nop
  101170:	90                   	nop
  101171:	90                   	nop
  101172:	90                   	nop
  101173:	90                   	nop
  101174:	90                   	nop
  101175:	90                   	nop
  101176:	90                   	nop
  101177:	90                   	nop
  101178:	90                   	nop
  101179:	90                   	nop
  10117a:	90                   	nop
  10117b:	90                   	nop
  10117c:	90                   	nop
  10117d:	90                   	nop
  10117e:	90                   	nop
  10117f:	90                   	nop
  101180:	90                   	nop
  101181:	90                   	nop
  101182:	90                   	nop
  101183:	90                   	nop
  101184:	90                   	nop
  101185:	90                   	nop
  101186:	90                   	nop
  101187:	90                   	nop
  101188:	90                   	nop
  101189:	90                   	nop
  10118a:	90                   	nop
  10118b:	90                   	nop
  10118c:	90                   	nop
  10118d:	90                   	nop
  10118e:	90                   	nop
  10118f:	90                   	nop
  101190:	90                   	nop
  101191:	90                   	nop
  101192:	90                   	nop
  101193:	90                   	nop
  101194:	90                   	nop
  101195:	90                   	nop
  101196:	90                   	nop
  101197:	90                   	nop
  101198:	90                   	nop
  101199:	90                   	nop
  10119a:	90                   	nop
  10119b:	90                   	nop
  10119c:	90                   	nop
  10119d:	90                   	nop
  10119e:	90                   	nop
  10119f:	90                   	nop
  1011a0:	90                   	nop
  1011a1:	90                   	nop
  1011a2:	90                   	nop
  1011a3:	90                   	nop
  1011a4:	90                   	nop
  1011a5:	90                   	nop
  1011a6:	90                   	nop
  1011a7:	90                   	nop
  1011a8:	90                   	nop
  1011a9:	90                   	nop
  1011aa:	90                   	nop
  1011ab:	90                   	nop
  1011ac:	90                   	nop
  1011ad:	90                   	nop
  1011ae:	90                   	nop
  1011af:	90                   	nop
  1011b0:	90                   	nop
  1011b1:	90                   	nop
  1011b2:	90                   	nop
  1011b3:	90                   	nop
  1011b4:	90                   	nop
  1011b5:	90                   	nop
  1011b6:	90                   	nop
  1011b7:	90                   	nop
  1011b8:	90                   	nop
  1011b9:	90                   	nop
  1011ba:	90                   	nop
  1011bb:	90                   	nop
  1011bc:	90                   	nop
  1011bd:	90                   	nop
  1011be:	90                   	nop
  1011bf:	90                   	nop
  1011c0:	90                   	nop
  1011c1:	90                   	nop
  1011c2:	90                   	nop
  1011c3:	90                   	nop
  1011c4:	90                   	nop
  1011c5:	90                   	nop
  1011c6:	90                   	nop
  1011c7:	90                   	nop
  1011c8:	90                   	nop
  1011c9:	90                   	nop
  1011ca:	90                   	nop
  1011cb:	90                   	nop
  1011cc:	90                   	nop
  1011cd:	90                   	nop
  1011ce:	90                   	nop
  1011cf:	90                   	nop
  1011d0:	90                   	nop
  1011d1:	90                   	nop
  1011d2:	90                   	nop
  1011d3:	90                   	nop
  1011d4:	90                   	nop
  1011d5:	90                   	nop
  1011d6:	90                   	nop
  1011d7:	90                   	nop
  1011d8:	90                   	nop
  1011d9:	90                   	nop
  1011da:	90                   	nop
  1011db:	90                   	nop
  1011dc:	90                   	nop
  1011dd:	90                   	nop
  1011de:	90                   	nop
  1011df:	90                   	nop
  1011e0:	90                   	nop
  1011e1:	90                   	nop
  1011e2:	90                   	nop
  1011e3:	90                   	nop
  1011e4:	90                   	nop
  1011e5:	90                   	nop
  1011e6:	90                   	nop
  1011e7:	90                   	nop
  1011e8:	90                   	nop
  1011e9:	90                   	nop
  1011ea:	90                   	nop
  1011eb:	90                   	nop
  1011ec:	90                   	nop
  1011ed:	90                   	nop
  1011ee:	90                   	nop
  1011ef:	90                   	nop
  1011f0:	90                   	nop
  1011f1:	90                   	nop
  1011f2:	90                   	nop
  1011f3:	90                   	nop
  1011f4:	90                   	nop
  1011f5:	90                   	nop
  1011f6:	90                   	nop
  1011f7:	90                   	nop
  1011f8:	90                   	nop
  1011f9:	90                   	nop
  1011fa:	90                   	nop
  1011fb:	90                   	nop
  1011fc:	90                   	nop
  1011fd:	90                   	nop
  1011fe:	90                   	nop
  1011ff:	90                   	nop
  101200:	90                   	nop
  101201:	90                   	nop
  101202:	90                   	nop
  101203:	90                   	nop
  101204:	90                   	nop
  101205:	90                   	nop
  101206:	90                   	nop
  101207:	90                   	nop
  101208:	90                   	nop
  101209:	90                   	nop
  10120a:	90                   	nop
  10120b:	90                   	nop
  10120c:	90                   	nop
  10120d:	90                   	nop
  10120e:	90                   	nop
  10120f:	90                   	nop
  101210:	90                   	nop
  101211:	90                   	nop
  101212:	90                   	nop
  101213:	90                   	nop
  101214:	90                   	nop
  101215:	90                   	nop
  101216:	90                   	nop
  101217:	90                   	nop
  101218:	90                   	nop
  101219:	90                   	nop
  10121a:	90                   	nop
  10121b:	90                   	nop
  10121c:	90                   	nop
  10121d:	90                   	nop
  10121e:	90                   	nop
  10121f:	90                   	nop
  101220:	90                   	nop
  101221:	90                   	nop
  101222:	90                   	nop
  101223:	90                   	nop
  101224:	90                   	nop
  101225:	90                   	nop
  101226:	90                   	nop
  101227:	90                   	nop
  101228:	90                   	nop
  101229:	90                   	nop
  10122a:	90                   	nop
  10122b:	90                   	nop
  10122c:	90                   	nop
  10122d:	90                   	nop
  10122e:	90                   	nop
  10122f:	90                   	nop
  101230:	90                   	nop
  101231:	90                   	nop
  101232:	90                   	nop
  101233:	90                   	nop
  101234:	90                   	nop
  101235:	90                   	nop
  101236:	90                   	nop
  101237:	90                   	nop
  101238:	90                   	nop
  101239:	90                   	nop
  10123a:	90                   	nop
  10123b:	90                   	nop
  10123c:	90                   	nop
  10123d:	90                   	nop
  10123e:	90                   	nop
  10123f:	90                   	nop
  101240:	90                   	nop
  101241:	90                   	nop
  101242:	90                   	nop
  101243:	90                   	nop
  101244:	90                   	nop
  101245:	90                   	nop
  101246:	90                   	nop
  101247:	90                   	nop
  101248:	90                   	nop
  101249:	90                   	nop
  10124a:	90                   	nop
  10124b:	90                   	nop
  10124c:	90                   	nop
  10124d:	90                   	nop
  10124e:	90                   	nop
  10124f:	90                   	nop
  101250:	90                   	nop
  101251:	90                   	nop
  101252:	90                   	nop
  101253:	90                   	nop
  101254:	90                   	nop
  101255:	90                   	nop
  101256:	90                   	nop
  101257:	90                   	nop
  101258:	90                   	nop
  101259:	90                   	nop
  10125a:	90                   	nop
  10125b:	90                   	nop
  10125c:	90                   	nop
  10125d:	90                   	nop
  10125e:	90                   	nop
  10125f:	90                   	nop
  101260:	90                   	nop
  101261:	90                   	nop
  101262:	90                   	nop
  101263:	90                   	nop
  101264:	90                   	nop
  101265:	90                   	nop
  101266:	90                   	nop
  101267:	90                   	nop
  101268:	90                   	nop
  101269:	90                   	nop
  10126a:	90                   	nop
  10126b:	90                   	nop
  10126c:	90                   	nop
  10126d:	90                   	nop
  10126e:	90                   	nop
  10126f:	90                   	nop
  101270:	90                   	nop
  101271:	90                   	nop
  101272:	90                   	nop
  101273:	90                   	nop
  101274:	90                   	nop
  101275:	90                   	nop
  101276:	90                   	nop
  101277:	90                   	nop
  101278:	90                   	nop
  101279:	90                   	nop
  10127a:	90                   	nop
  10127b:	90                   	nop
  10127c:	90                   	nop
  10127d:	90                   	nop
  10127e:	90                   	nop
  10127f:	90                   	nop
  101280:	90                   	nop
  101281:	90                   	nop
  101282:	90                   	nop
  101283:	90                   	nop
  101284:	90                   	nop
  101285:	90                   	nop
  101286:	90                   	nop
  101287:	90                   	nop
  101288:	90                   	nop
  101289:	90                   	nop
  10128a:	90                   	nop
  10128b:	90                   	nop
  10128c:	90                   	nop
  10128d:	90                   	nop
  10128e:	90                   	nop
  10128f:	90                   	nop
  101290:	90                   	nop
  101291:	90                   	nop
  101292:	90                   	nop
  101293:	90                   	nop
  101294:	90                   	nop
  101295:	90                   	nop
  101296:	90                   	nop
  101297:	90                   	nop
  101298:	90                   	nop
  101299:	90                   	nop
  10129a:	90                   	nop
  10129b:	90                   	nop
  10129c:	90                   	nop
  10129d:	90                   	nop
  10129e:	90                   	nop
  10129f:	90                   	nop
  1012a0:	90                   	nop
  1012a1:	90                   	nop
  1012a2:	90                   	nop
  1012a3:	90                   	nop
  1012a4:	90                   	nop
  1012a5:	90                   	nop
  1012a6:	90                   	nop
  1012a7:	90                   	nop
  1012a8:	90                   	nop
  1012a9:	90                   	nop
  1012aa:	90                   	nop
  1012ab:	90                   	nop
  1012ac:	90                   	nop
  1012ad:	90                   	nop
  1012ae:	90                   	nop
  1012af:	90                   	nop
  1012b0:	90                   	nop
  1012b1:	90                   	nop
  1012b2:	90                   	nop
  1012b3:	90                   	nop
  1012b4:	90                   	nop
  1012b5:	90                   	nop
  1012b6:	90                   	nop
  1012b7:	90                   	nop
  1012b8:	90                   	nop
  1012b9:	90                   	nop
  1012ba:	90                   	nop
  1012bb:	90                   	nop
  1012bc:	90                   	nop
  1012bd:	90                   	nop
  1012be:	90                   	nop
  1012bf:	90                   	nop
  1012c0:	90                   	nop
  1012c1:	90                   	nop
  1012c2:	90                   	nop
  1012c3:	90                   	nop
  1012c4:	90                   	nop
  1012c5:	90                   	nop
  1012c6:	90                   	nop
  1012c7:	90                   	nop
  1012c8:	90                   	nop
  1012c9:	90                   	nop
  1012ca:	90                   	nop
  1012cb:	90                   	nop
  1012cc:	90                   	nop
  1012cd:	90                   	nop
  1012ce:	90                   	nop
  1012cf:	90                   	nop
  1012d0:	90                   	nop
  1012d1:	90                   	nop
  1012d2:	90                   	nop
  1012d3:	90                   	nop
  1012d4:	90                   	nop
  1012d5:	90                   	nop
  1012d6:	90                   	nop
  1012d7:	90                   	nop
  1012d8:	90                   	nop
  1012d9:	90                   	nop
  1012da:	90                   	nop
  1012db:	90                   	nop
  1012dc:	90                   	nop
  1012dd:	90                   	nop
  1012de:	90                   	nop
  1012df:	90                   	nop
  1012e0:	90                   	nop
  1012e1:	90                   	nop
  1012e2:	90                   	nop
  1012e3:	90                   	nop
  1012e4:	90                   	nop
  1012e5:	90                   	nop
  1012e6:	90                   	nop
  1012e7:	90                   	nop
  1012e8:	90                   	nop
  1012e9:	90                   	nop
  1012ea:	90                   	nop
  1012eb:	90                   	nop
  1012ec:	90                   	nop
  1012ed:	90                   	nop
  1012ee:	90                   	nop
  1012ef:	90                   	nop
  1012f0:	90                   	nop
  1012f1:	90                   	nop
  1012f2:	90                   	nop
  1012f3:	90                   	nop
  1012f4:	90                   	nop
  1012f5:	90                   	nop
  1012f6:	90                   	nop
  1012f7:	90                   	nop
  1012f8:	90                   	nop
  1012f9:	90                   	nop
  1012fa:	90                   	nop
  1012fb:	90                   	nop
  1012fc:	90                   	nop
  1012fd:	90                   	nop
  1012fe:	90                   	nop
  1012ff:	90                   	nop
  101300:	90                   	nop
  101301:	90                   	nop
  101302:	90                   	nop
  101303:	90                   	nop
  101304:	90                   	nop
  101305:	90                   	nop
  101306:	90                   	nop
  101307:	90                   	nop
  101308:	90                   	nop
  101309:	90                   	nop
  10130a:	90                   	nop
  10130b:	90                   	nop
  10130c:	90                   	nop
  10130d:	90                   	nop
  10130e:	90                   	nop
  10130f:	90                   	nop
  101310:	90                   	nop
  101311:	90                   	nop
  101312:	90                   	nop
  101313:	90                   	nop
  101314:	90                   	nop
  101315:	90                   	nop
  101316:	90                   	nop
  101317:	90                   	nop
  101318:	90                   	nop
  101319:	90                   	nop
  10131a:	90                   	nop
  10131b:	90                   	nop
  10131c:	90                   	nop
  10131d:	90                   	nop
  10131e:	90                   	nop
  10131f:	90                   	nop
  101320:	90                   	nop
  101321:	90                   	nop
  101322:	90                   	nop
  101323:	90                   	nop
  101324:	90                   	nop
  101325:	90                   	nop
  101326:	90                   	nop
  101327:	90                   	nop
  101328:	90                   	nop
  101329:	90                   	nop
  10132a:	90                   	nop
  10132b:	90                   	nop
  10132c:	90                   	nop
  10132d:	90                   	nop
  10132e:	90                   	nop
  10132f:	90                   	nop
  101330:	90                   	nop
  101331:	90                   	nop
  101332:	90                   	nop
  101333:	90                   	nop
  101334:	90                   	nop
  101335:	90                   	nop
  101336:	90                   	nop
  101337:	90                   	nop
  101338:	90                   	nop
  101339:	90                   	nop
  10133a:	90                   	nop
  10133b:	90                   	nop
  10133c:	90                   	nop
  10133d:	90                   	nop
  10133e:	90                   	nop
  10133f:	90                   	nop
  101340:	90                   	nop
  101341:	90                   	nop
  101342:	90                   	nop
  101343:	90                   	nop
  101344:	90                   	nop
  101345:	90                   	nop
  101346:	90                   	nop
  101347:	90                   	nop
  101348:	90                   	nop
  101349:	90                   	nop
  10134a:	90                   	nop
  10134b:	90                   	nop
  10134c:	90                   	nop
  10134d:	90                   	nop
  10134e:	90                   	nop
  10134f:	90                   	nop
  101350:	90                   	nop
  101351:	90                   	nop
  101352:	90                   	nop
  101353:	90                   	nop
  101354:	90                   	nop
  101355:	90                   	nop
  101356:	90                   	nop
  101357:	90                   	nop
  101358:	90                   	nop
  101359:	90                   	nop
  10135a:	90                   	nop
  10135b:	90                   	nop
  10135c:	90                   	nop
  10135d:	90                   	nop
  10135e:	90                   	nop
  10135f:	90                   	nop
  101360:	90                   	nop
  101361:	90                   	nop
  101362:	90                   	nop
  101363:	90                   	nop
  101364:	90                   	nop
  101365:	90                   	nop
  101366:	90                   	nop
  101367:	90                   	nop
  101368:	90                   	nop
  101369:	90                   	nop
  10136a:	90                   	nop
  10136b:	90                   	nop
  10136c:	90                   	nop
  10136d:	90                   	nop
  10136e:	90                   	nop
  10136f:	90                   	nop
  101370:	90                   	nop
  101371:	90                   	nop
  101372:	90                   	nop
  101373:	90                   	nop
  101374:	90                   	nop
  101375:	90                   	nop
  101376:	90                   	nop
  101377:	90                   	nop
  101378:	90                   	nop
  101379:	90                   	nop
  10137a:	90                   	nop
  10137b:	90                   	nop
  10137c:	90                   	nop
  10137d:	90                   	nop
  10137e:	90                   	nop
  10137f:	90                   	nop
  101380:	90                   	nop
  101381:	90                   	nop
  101382:	90                   	nop
  101383:	90                   	nop
  101384:	90                   	nop
  101385:	90                   	nop
  101386:	90                   	nop
  101387:	90                   	nop
  101388:	90                   	nop
  101389:	90                   	nop
  10138a:	90                   	nop
  10138b:	90                   	nop
  10138c:	90                   	nop
  10138d:	90                   	nop
  10138e:	90                   	nop
  10138f:	90                   	nop
  101390:	90                   	nop
  101391:	90                   	nop
  101392:	90                   	nop
  101393:	90                   	nop
  101394:	90                   	nop
  101395:	90                   	nop
  101396:	90                   	nop
  101397:	90                   	nop
  101398:	90                   	nop
  101399:	90                   	nop
  10139a:	90                   	nop
  10139b:	90                   	nop
  10139c:	90                   	nop
  10139d:	90                   	nop
  10139e:	90                   	nop
  10139f:	90                   	nop
  1013a0:	90                   	nop
  1013a1:	90                   	nop
  1013a2:	90                   	nop
  1013a3:	90                   	nop
  1013a4:	90                   	nop
  1013a5:	90                   	nop
  1013a6:	90                   	nop
  1013a7:	90                   	nop
  1013a8:	90                   	nop
  1013a9:	90                   	nop
  1013aa:	90                   	nop
  1013ab:	90                   	nop
  1013ac:	90                   	nop
  1013ad:	90                   	nop
  1013ae:	90                   	nop
  1013af:	90                   	nop
  1013b0:	90                   	nop
  1013b1:	90                   	nop
  1013b2:	90                   	nop
  1013b3:	90                   	nop
  1013b4:	90                   	nop
  1013b5:	90                   	nop
  1013b6:	90                   	nop
  1013b7:	90                   	nop
  1013b8:	90                   	nop
  1013b9:	90                   	nop
  1013ba:	90                   	nop
  1013bb:	90                   	nop
  1013bc:	90                   	nop
  1013bd:	90                   	nop
  1013be:	90                   	nop
  1013bf:	90                   	nop
  1013c0:	90                   	nop
  1013c1:	90                   	nop
  1013c2:	90                   	nop
  1013c3:	90                   	nop
  1013c4:	90                   	nop
  1013c5:	90                   	nop
  1013c6:	90                   	nop
  1013c7:	90                   	nop
  1013c8:	90                   	nop
  1013c9:	90                   	nop
  1013ca:	90                   	nop
  1013cb:	90                   	nop
  1013cc:	90                   	nop
  1013cd:	90                   	nop
  1013ce:	90                   	nop
  1013cf:	90                   	nop
  1013d0:	90                   	nop
  1013d1:	90                   	nop
  1013d2:	90                   	nop
  1013d3:	90                   	nop
  1013d4:	90                   	nop
  1013d5:	90                   	nop
  1013d6:	90                   	nop
  1013d7:	90                   	nop
  1013d8:	90                   	nop
  1013d9:	90                   	nop
  1013da:	90                   	nop
  1013db:	90                   	nop
  1013dc:	90                   	nop
  1013dd:	90                   	nop
  1013de:	90                   	nop
  1013df:	90                   	nop
  1013e0:	90                   	nop
  1013e1:	90                   	nop
  1013e2:	90                   	nop
  1013e3:	90                   	nop
  1013e4:	90                   	nop
  1013e5:	90                   	nop
  1013e6:	90                   	nop
  1013e7:	90                   	nop
  1013e8:	90                   	nop
  1013e9:	90                   	nop
  1013ea:	90                   	nop
  1013eb:	90                   	nop
  1013ec:	90                   	nop
  1013ed:	90                   	nop
  1013ee:	90                   	nop
  1013ef:	90                   	nop
  1013f0:	90                   	nop
  1013f1:	90                   	nop
  1013f2:	90                   	nop
  1013f3:	90                   	nop
  1013f4:	90                   	nop
  1013f5:	90                   	nop
  1013f6:	90                   	nop
  1013f7:	90                   	nop
  1013f8:	90                   	nop
  1013f9:	90                   	nop
  1013fa:	90                   	nop
  1013fb:	90                   	nop
  1013fc:	90                   	nop
  1013fd:	90                   	nop
  1013fe:	90                   	nop
  1013ff:	90                   	nop
  101400:	90                   	nop
  101401:	90                   	nop
  101402:	90                   	nop
  101403:	90                   	nop
  101404:	90                   	nop
  101405:	90                   	nop
  101406:	90                   	nop
  101407:	90                   	nop
  101408:	90                   	nop
  101409:	90                   	nop
  10140a:	90                   	nop
  10140b:	90                   	nop
  10140c:	90                   	nop
  10140d:	90                   	nop
  10140e:	90                   	nop
  10140f:	90                   	nop
  101410:	90                   	nop
  101411:	90                   	nop
  101412:	90                   	nop
  101413:	90                   	nop
  101414:	90                   	nop
  101415:	90                   	nop
  101416:	90                   	nop
  101417:	90                   	nop
  101418:	90                   	nop
  101419:	90                   	nop
  10141a:	90                   	nop
  10141b:	90                   	nop
  10141c:	90                   	nop
  10141d:	90                   	nop
  10141e:	90                   	nop
  10141f:	90                   	nop
  101420:	90                   	nop
  101421:	90                   	nop
  101422:	90                   	nop
  101423:	90                   	nop
  101424:	90                   	nop
  101425:	90                   	nop
  101426:	90                   	nop
  101427:	90                   	nop
  101428:	90                   	nop
  101429:	90                   	nop
  10142a:	90                   	nop
  10142b:	90                   	nop
  10142c:	90                   	nop
  10142d:	90                   	nop
  10142e:	90                   	nop
  10142f:	90                   	nop
  101430:	90                   	nop
  101431:	90                   	nop
  101432:	90                   	nop
  101433:	90                   	nop
  101434:	90                   	nop
  101435:	90                   	nop
  101436:	90                   	nop
  101437:	90                   	nop
  101438:	90                   	nop
  101439:	90                   	nop
  10143a:	90                   	nop
  10143b:	90                   	nop
  10143c:	90                   	nop
  10143d:	90                   	nop
  10143e:	90                   	nop
  10143f:	90                   	nop
  101440:	90                   	nop
  101441:	90                   	nop
  101442:	90                   	nop
  101443:	90                   	nop
  101444:	90                   	nop
  101445:	90                   	nop
  101446:	90                   	nop
  101447:	90                   	nop
  101448:	90                   	nop
  101449:	90                   	nop
  10144a:	90                   	nop
  10144b:	90                   	nop
  10144c:	90                   	nop
  10144d:	90                   	nop
  10144e:	90                   	nop
  10144f:	90                   	nop
  101450:	90                   	nop
  101451:	90                   	nop
  101452:	90                   	nop
  101453:	90                   	nop
  101454:	90                   	nop
  101455:	90                   	nop
  101456:	90                   	nop
  101457:	90                   	nop
  101458:	90                   	nop
  101459:	90                   	nop
  10145a:	90                   	nop
  10145b:	90                   	nop
  10145c:	90                   	nop
  10145d:	90                   	nop
  10145e:	90                   	nop
  10145f:	90                   	nop
  101460:	90                   	nop
  101461:	90                   	nop
  101462:	90                   	nop
  101463:	90                   	nop
  101464:	90                   	nop
  101465:	90                   	nop
  101466:	90                   	nop
  101467:	90                   	nop
  101468:	90                   	nop
  101469:	90                   	nop
  10146a:	90                   	nop
  10146b:	90                   	nop
  10146c:	90                   	nop
  10146d:	90                   	nop
  10146e:	90                   	nop
  10146f:	90                   	nop
  101470:	90                   	nop
  101471:	90                   	nop
  101472:	90                   	nop
  101473:	90                   	nop
  101474:	90                   	nop
  101475:	90                   	nop
  101476:	90                   	nop
  101477:	90                   	nop
  101478:	90                   	nop
  101479:	90                   	nop
  10147a:	90                   	nop
  10147b:	90                   	nop
  10147c:	90                   	nop
  10147d:	90                   	nop
  10147e:	90                   	nop
  10147f:	90                   	nop
  101480:	90                   	nop
  101481:	90                   	nop
  101482:	90                   	nop
  101483:	90                   	nop
  101484:	90                   	nop
  101485:	90                   	nop
  101486:	90                   	nop
  101487:	90                   	nop
  101488:	90                   	nop
  101489:	90                   	nop
  10148a:	90                   	nop
  10148b:	90                   	nop
  10148c:	90                   	nop
  10148d:	90                   	nop
  10148e:	90                   	nop
  10148f:	90                   	nop
  101490:	90                   	nop
  101491:	90                   	nop
  101492:	90                   	nop
  101493:	90                   	nop
  101494:	90                   	nop
  101495:	90                   	nop
  101496:	90                   	nop
  101497:	90                   	nop
  101498:	90                   	nop
  101499:	90                   	nop
  10149a:	90                   	nop
  10149b:	90                   	nop
  10149c:	90                   	nop
  10149d:	90                   	nop
  10149e:	90                   	nop
  10149f:	90                   	nop
  1014a0:	90                   	nop
  1014a1:	90                   	nop
  1014a2:	90                   	nop
  1014a3:	90                   	nop
  1014a4:	90                   	nop
  1014a5:	90                   	nop
  1014a6:	90                   	nop
  1014a7:	90                   	nop
  1014a8:	90                   	nop
  1014a9:	90                   	nop
  1014aa:	90                   	nop
  1014ab:	90                   	nop
  1014ac:	90                   	nop
  1014ad:	90                   	nop
  1014ae:	90                   	nop
  1014af:	90                   	nop
  1014b0:	90                   	nop
  1014b1:	90                   	nop
  1014b2:	90                   	nop
  1014b3:	90                   	nop
  1014b4:	90                   	nop
  1014b5:	90                   	nop
  1014b6:	90                   	nop
  1014b7:	90                   	nop
  1014b8:	90                   	nop
  1014b9:	90                   	nop
  1014ba:	90                   	nop
  1014bb:	90                   	nop
  1014bc:	90                   	nop
  1014bd:	90                   	nop
  1014be:	90                   	nop
  1014bf:	90                   	nop
  1014c0:	90                   	nop
  1014c1:	90                   	nop
  1014c2:	90                   	nop
  1014c3:	90                   	nop
  1014c4:	90                   	nop
  1014c5:	90                   	nop
  1014c6:	90                   	nop
  1014c7:	90                   	nop
  1014c8:	90                   	nop
  1014c9:	90                   	nop
  1014ca:	90                   	nop
  1014cb:	90                   	nop
  1014cc:	90                   	nop
  1014cd:	90                   	nop
  1014ce:	90                   	nop
  1014cf:	90                   	nop
  1014d0:	90                   	nop
  1014d1:	90                   	nop
  1014d2:	90                   	nop
  1014d3:	90                   	nop
  1014d4:	90                   	nop
  1014d5:	90                   	nop
  1014d6:	90                   	nop
  1014d7:	90                   	nop
  1014d8:	90                   	nop
  1014d9:	90                   	nop
  1014da:	90                   	nop
  1014db:	90                   	nop
  1014dc:	90                   	nop
  1014dd:	90                   	nop
  1014de:	90                   	nop
  1014df:	90                   	nop
  1014e0:	90                   	nop
  1014e1:	90                   	nop
  1014e2:	90                   	nop
  1014e3:	90                   	nop
  1014e4:	90                   	nop
  1014e5:	90                   	nop
  1014e6:	90                   	nop
  1014e7:	90                   	nop
  1014e8:	90                   	nop
  1014e9:	90                   	nop
  1014ea:	90                   	nop
  1014eb:	90                   	nop
  1014ec:	90                   	nop
  1014ed:	90                   	nop
  1014ee:	90                   	nop
  1014ef:	90                   	nop
  1014f0:	90                   	nop
  1014f1:	90                   	nop
  1014f2:	90                   	nop
  1014f3:	90                   	nop
  1014f4:	90                   	nop
  1014f5:	90                   	nop
  1014f6:	90                   	nop
  1014f7:	90                   	nop
  1014f8:	90                   	nop
  1014f9:	90                   	nop
  1014fa:	90                   	nop
  1014fb:	90                   	nop
  1014fc:	90                   	nop
  1014fd:	90                   	nop
  1014fe:	90                   	nop
  1014ff:	90                   	nop
  101500:	90                   	nop
  101501:	90                   	nop
  101502:	90                   	nop
  101503:	90                   	nop
  101504:	90                   	nop
  101505:	90                   	nop
  101506:	90                   	nop
  101507:	90                   	nop
  101508:	90                   	nop
  101509:	90                   	nop
  10150a:	90                   	nop
  10150b:	90                   	nop
  10150c:	90                   	nop
  10150d:	90                   	nop
  10150e:	90                   	nop
  10150f:	90                   	nop
  101510:	90                   	nop
  101511:	90                   	nop
  101512:	90                   	nop
  101513:	90                   	nop
  101514:	90                   	nop
  101515:	90                   	nop
  101516:	90                   	nop
  101517:	90                   	nop
  101518:	90                   	nop
  101519:	90                   	nop
  10151a:	90                   	nop
  10151b:	90                   	nop
  10151c:	90                   	nop
  10151d:	90                   	nop
  10151e:	90                   	nop
  10151f:	90                   	nop
  101520:	90                   	nop
  101521:	90                   	nop
  101522:	90                   	nop
  101523:	90                   	nop
  101524:	90                   	nop
  101525:	90                   	nop
  101526:	90                   	nop
  101527:	90                   	nop
  101528:	90                   	nop
  101529:	90                   	nop
  10152a:	90                   	nop
  10152b:	90                   	nop
  10152c:	90                   	nop
  10152d:	90                   	nop
  10152e:	90                   	nop
  10152f:	90                   	nop
  101530:	90                   	nop
  101531:	90                   	nop
  101532:	90                   	nop
  101533:	90                   	nop
  101534:	90                   	nop
  101535:	90                   	nop
  101536:	90                   	nop
  101537:	90                   	nop
  101538:	90                   	nop
  101539:	90                   	nop
  10153a:	90                   	nop
  10153b:	90                   	nop
  10153c:	90                   	nop
  10153d:	90                   	nop
  10153e:	90                   	nop
  10153f:	90                   	nop
  101540:	90                   	nop
  101541:	90                   	nop
  101542:	90                   	nop
  101543:	90                   	nop
  101544:	90                   	nop
  101545:	90                   	nop
  101546:	90                   	nop
  101547:	90                   	nop
  101548:	90                   	nop
  101549:	90                   	nop
  10154a:	90                   	nop
  10154b:	90                   	nop
  10154c:	90                   	nop
  10154d:	90                   	nop
  10154e:	90                   	nop
  10154f:	90                   	nop
  101550:	90                   	nop
  101551:	90                   	nop
  101552:	90                   	nop
  101553:	90                   	nop
  101554:	90                   	nop
  101555:	90                   	nop
  101556:	90                   	nop
  101557:	90                   	nop
  101558:	90                   	nop
  101559:	90                   	nop
  10155a:	90                   	nop
  10155b:	90                   	nop
  10155c:	90                   	nop
  10155d:	90                   	nop
  10155e:	90                   	nop
  10155f:	90                   	nop
  101560:	90                   	nop
  101561:	90                   	nop
  101562:	90                   	nop
  101563:	90                   	nop
  101564:	90                   	nop
  101565:	90                   	nop
  101566:	90                   	nop
  101567:	90                   	nop
  101568:	90                   	nop
  101569:	90                   	nop
  10156a:	90                   	nop
  10156b:	90                   	nop
  10156c:	90                   	nop
  10156d:	90                   	nop
  10156e:	90                   	nop
  10156f:	90                   	nop
  101570:	90                   	nop
  101571:	90                   	nop
  101572:	90                   	nop
  101573:	90                   	nop
  101574:	90                   	nop
  101575:	90                   	nop
  101576:	90                   	nop
  101577:	90                   	nop
  101578:	90                   	nop
  101579:	90                   	nop
  10157a:	90                   	nop
  10157b:	90                   	nop
  10157c:	90                   	nop
  10157d:	90                   	nop
  10157e:	90                   	nop
  10157f:	90                   	nop
  101580:	90                   	nop
  101581:	90                   	nop
  101582:	90                   	nop
  101583:	90                   	nop
  101584:	90                   	nop
  101585:	90                   	nop
  101586:	90                   	nop
  101587:	90                   	nop
  101588:	90                   	nop
  101589:	90                   	nop
  10158a:	90                   	nop
  10158b:	90                   	nop
  10158c:	90                   	nop
  10158d:	90                   	nop
  10158e:	90                   	nop
  10158f:	90                   	nop
  101590:	90                   	nop
  101591:	90                   	nop
  101592:	90                   	nop
  101593:	90                   	nop
  101594:	90                   	nop
  101595:	90                   	nop
  101596:	90                   	nop
  101597:	90                   	nop
  101598:	90                   	nop
  101599:	90                   	nop
  10159a:	90                   	nop
  10159b:	90                   	nop
  10159c:	90                   	nop
  10159d:	90                   	nop
  10159e:	90                   	nop
  10159f:	90                   	nop
  1015a0:	90                   	nop
  1015a1:	90                   	nop
  1015a2:	90                   	nop
  1015a3:	90                   	nop
  1015a4:	90                   	nop
  1015a5:	90                   	nop
  1015a6:	90                   	nop
  1015a7:	90                   	nop
  1015a8:	90                   	nop
  1015a9:	90                   	nop
  1015aa:	90                   	nop
  1015ab:	90                   	nop
  1015ac:	90                   	nop
  1015ad:	90                   	nop
  1015ae:	90                   	nop
  1015af:	90                   	nop
  1015b0:	90                   	nop
  1015b1:	90                   	nop
  1015b2:	90                   	nop
  1015b3:	90                   	nop
  1015b4:	90                   	nop
  1015b5:	90                   	nop
  1015b6:	90                   	nop
  1015b7:	90                   	nop
  1015b8:	90                   	nop
  1015b9:	90                   	nop
  1015ba:	90                   	nop
  1015bb:	90                   	nop
  1015bc:	90                   	nop
  1015bd:	90                   	nop
  1015be:	90                   	nop
  1015bf:	90                   	nop
  1015c0:	90                   	nop
  1015c1:	90                   	nop
  1015c2:	90                   	nop
  1015c3:	90                   	nop
  1015c4:	90                   	nop
  1015c5:	90                   	nop
  1015c6:	90                   	nop
  1015c7:	90                   	nop
  1015c8:	90                   	nop
  1015c9:	90                   	nop
  1015ca:	90                   	nop
  1015cb:	90                   	nop
  1015cc:	90                   	nop
  1015cd:	90                   	nop
  1015ce:	90                   	nop
  1015cf:	90                   	nop
  1015d0:	90                   	nop
  1015d1:	90                   	nop
  1015d2:	90                   	nop
  1015d3:	90                   	nop
  1015d4:	90                   	nop
  1015d5:	90                   	nop
  1015d6:	90                   	nop
  1015d7:	90                   	nop
  1015d8:	90                   	nop
  1015d9:	90                   	nop
  1015da:	90                   	nop
  1015db:	90                   	nop
  1015dc:	90                   	nop
  1015dd:	90                   	nop
  1015de:	90                   	nop
  1015df:	90                   	nop
  1015e0:	90                   	nop
  1015e1:	90                   	nop
  1015e2:	90                   	nop
  1015e3:	90                   	nop
  1015e4:	90                   	nop
  1015e5:	90                   	nop
  1015e6:	90                   	nop
  1015e7:	90                   	nop
  1015e8:	90                   	nop
  1015e9:	90                   	nop
  1015ea:	90                   	nop
  1015eb:	90                   	nop
  1015ec:	90                   	nop
  1015ed:	90                   	nop
  1015ee:	90                   	nop
  1015ef:	90                   	nop
  1015f0:	90                   	nop
  1015f1:	90                   	nop
  1015f2:	90                   	nop
  1015f3:	90                   	nop
  1015f4:	90                   	nop
  1015f5:	90                   	nop
  1015f6:	90                   	nop
  1015f7:	90                   	nop
  1015f8:	90                   	nop
  1015f9:	90                   	nop
  1015fa:	90                   	nop
  1015fb:	90                   	nop
  1015fc:	90                   	nop
  1015fd:	90                   	nop
  1015fe:	90                   	nop
  1015ff:	90                   	nop
  101600:	90                   	nop
  101601:	90                   	nop
  101602:	90                   	nop
  101603:	90                   	nop
  101604:	90                   	nop
  101605:	90                   	nop
  101606:	90                   	nop
  101607:	90                   	nop
  101608:	90                   	nop
  101609:	90                   	nop
  10160a:	90                   	nop
  10160b:	90                   	nop
  10160c:	90                   	nop
  10160d:	90                   	nop
  10160e:	90                   	nop
  10160f:	90                   	nop
  101610:	90                   	nop
  101611:	90                   	nop
  101612:	90                   	nop
  101613:	90                   	nop
  101614:	90                   	nop
  101615:	90                   	nop
  101616:	90                   	nop
  101617:	90                   	nop
  101618:	90                   	nop
  101619:	90                   	nop
  10161a:	90                   	nop
  10161b:	90                   	nop
  10161c:	90                   	nop
  10161d:	90                   	nop
  10161e:	90                   	nop
  10161f:	90                   	nop
  101620:	90                   	nop
  101621:	90                   	nop
  101622:	90                   	nop
  101623:	90                   	nop
  101624:	90                   	nop
  101625:	90                   	nop
  101626:	90                   	nop
  101627:	90                   	nop
  101628:	90                   	nop
  101629:	90                   	nop
  10162a:	90                   	nop
  10162b:	90                   	nop
  10162c:	90                   	nop
  10162d:	90                   	nop
  10162e:	90                   	nop
  10162f:	90                   	nop
  101630:	90                   	nop
  101631:	90                   	nop
  101632:	90                   	nop
  101633:	90                   	nop
  101634:	90                   	nop
  101635:	90                   	nop
  101636:	90                   	nop
  101637:	90                   	nop
  101638:	90                   	nop
  101639:	90                   	nop
  10163a:	90                   	nop
  10163b:	90                   	nop
  10163c:	90                   	nop
  10163d:	90                   	nop
  10163e:	90                   	nop
  10163f:	90                   	nop
  101640:	90                   	nop
  101641:	90                   	nop
  101642:	90                   	nop
  101643:	90                   	nop
  101644:	90                   	nop
  101645:	90                   	nop
  101646:	90                   	nop
  101647:	90                   	nop
  101648:	90                   	nop
  101649:	90                   	nop
  10164a:	90                   	nop
  10164b:	90                   	nop
  10164c:	90                   	nop
  10164d:	90                   	nop
  10164e:	90                   	nop
  10164f:	90                   	nop
  101650:	90                   	nop
  101651:	90                   	nop
  101652:	90                   	nop
  101653:	90                   	nop
  101654:	90                   	nop
  101655:	90                   	nop
  101656:	90                   	nop
  101657:	90                   	nop
  101658:	90                   	nop
  101659:	90                   	nop
  10165a:	90                   	nop
  10165b:	90                   	nop
  10165c:	90                   	nop
  10165d:	90                   	nop
  10165e:	90                   	nop
  10165f:	90                   	nop
  101660:	90                   	nop
  101661:	90                   	nop
  101662:	90                   	nop
  101663:	90                   	nop
  101664:	90                   	nop
  101665:	90                   	nop
  101666:	90                   	nop
  101667:	90                   	nop
  101668:	90                   	nop
  101669:	90                   	nop
  10166a:	90                   	nop
  10166b:	90                   	nop
  10166c:	90                   	nop
  10166d:	90                   	nop
  10166e:	90                   	nop
  10166f:	90                   	nop
  101670:	90                   	nop
  101671:	90                   	nop
  101672:	90                   	nop
  101673:	90                   	nop
  101674:	90                   	nop
  101675:	90                   	nop
  101676:	90                   	nop
  101677:	90                   	nop
  101678:	90                   	nop
  101679:	90                   	nop
  10167a:	90                   	nop
  10167b:	90                   	nop
  10167c:	90                   	nop
  10167d:	90                   	nop
  10167e:	90                   	nop
  10167f:	90                   	nop
  101680:	90                   	nop
  101681:	90                   	nop
  101682:	90                   	nop
  101683:	90                   	nop
  101684:	90                   	nop
  101685:	90                   	nop
  101686:	90                   	nop
  101687:	90                   	nop
  101688:	90                   	nop
  101689:	90                   	nop
  10168a:	90                   	nop
  10168b:	90                   	nop
  10168c:	90                   	nop
  10168d:	90                   	nop
  10168e:	90                   	nop
  10168f:	90                   	nop
  101690:	90                   	nop
  101691:	90                   	nop
  101692:	90                   	nop
  101693:	90                   	nop
  101694:	90                   	nop
  101695:	90                   	nop
  101696:	90                   	nop
  101697:	90                   	nop
  101698:	90                   	nop
  101699:	90                   	nop
  10169a:	90                   	nop
  10169b:	90                   	nop
  10169c:	90                   	nop
  10169d:	90                   	nop
  10169e:	90                   	nop
  10169f:	90                   	nop
  1016a0:	90                   	nop
  1016a1:	90                   	nop
  1016a2:	90                   	nop
  1016a3:	90                   	nop
  1016a4:	90                   	nop
  1016a5:	90                   	nop
  1016a6:	90                   	nop
  1016a7:	90                   	nop
  1016a8:	90                   	nop
  1016a9:	90                   	nop
  1016aa:	90                   	nop
  1016ab:	90                   	nop
  1016ac:	90                   	nop
  1016ad:	90                   	nop
  1016ae:	90                   	nop
  1016af:	90                   	nop
  1016b0:	90                   	nop
  1016b1:	90                   	nop
  1016b2:	90                   	nop
  1016b3:	90                   	nop
  1016b4:	90                   	nop
  1016b5:	90                   	nop
  1016b6:	90                   	nop
  1016b7:	90                   	nop
  1016b8:	90                   	nop
  1016b9:	90                   	nop
  1016ba:	90                   	nop
  1016bb:	90                   	nop
  1016bc:	90                   	nop
  1016bd:	90                   	nop
  1016be:	90                   	nop
  1016bf:	90                   	nop
  1016c0:	90                   	nop
  1016c1:	90                   	nop
  1016c2:	90                   	nop
  1016c3:	90                   	nop
  1016c4:	90                   	nop
  1016c5:	90                   	nop
  1016c6:	90                   	nop
  1016c7:	90                   	nop
  1016c8:	90                   	nop
  1016c9:	90                   	nop
  1016ca:	90                   	nop
  1016cb:	90                   	nop
  1016cc:	90                   	nop
  1016cd:	90                   	nop
  1016ce:	90                   	nop
  1016cf:	90                   	nop
  1016d0:	90                   	nop
  1016d1:	90                   	nop
  1016d2:	90                   	nop
  1016d3:	90                   	nop
  1016d4:	90                   	nop
  1016d5:	90                   	nop
  1016d6:	90                   	nop
  1016d7:	90                   	nop
  1016d8:	90                   	nop
  1016d9:	90                   	nop
  1016da:	90                   	nop
  1016db:	90                   	nop
  1016dc:	90                   	nop
  1016dd:	90                   	nop
  1016de:	90                   	nop
  1016df:	90                   	nop
  1016e0:	90                   	nop
  1016e1:	90                   	nop
  1016e2:	90                   	nop
  1016e3:	90                   	nop
  1016e4:	90                   	nop
  1016e5:	90                   	nop
  1016e6:	90                   	nop
  1016e7:	90                   	nop
  1016e8:	90                   	nop
  1016e9:	90                   	nop
  1016ea:	90                   	nop
  1016eb:	90                   	nop
  1016ec:	90                   	nop
  1016ed:	90                   	nop
  1016ee:	90                   	nop
  1016ef:	90                   	nop
  1016f0:	90                   	nop
  1016f1:	90                   	nop
  1016f2:	90                   	nop
  1016f3:	90                   	nop
  1016f4:	90                   	nop
  1016f5:	90                   	nop
  1016f6:	90                   	nop
  1016f7:	90                   	nop
  1016f8:	90                   	nop
  1016f9:	90                   	nop
  1016fa:	90                   	nop
  1016fb:	90                   	nop
  1016fc:	90                   	nop
  1016fd:	90                   	nop
  1016fe:	90                   	nop
  1016ff:	90                   	nop
  101700:	90                   	nop
  101701:	90                   	nop
  101702:	90                   	nop
  101703:	90                   	nop
  101704:	90                   	nop
  101705:	90                   	nop
  101706:	90                   	nop
  101707:	90                   	nop
  101708:	90                   	nop
  101709:	90                   	nop
  10170a:	90                   	nop
  10170b:	90                   	nop
  10170c:	90                   	nop
  10170d:	90                   	nop
  10170e:	90                   	nop
  10170f:	90                   	nop
  101710:	90                   	nop
  101711:	90                   	nop
  101712:	90                   	nop
  101713:	90                   	nop
  101714:	90                   	nop
  101715:	90                   	nop
  101716:	90                   	nop
  101717:	90                   	nop
  101718:	90                   	nop
  101719:	90                   	nop
  10171a:	90                   	nop
  10171b:	90                   	nop
  10171c:	90                   	nop
  10171d:	90                   	nop
  10171e:	90                   	nop
  10171f:	90                   	nop
  101720:	90                   	nop
  101721:	90                   	nop
  101722:	90                   	nop
  101723:	90                   	nop
  101724:	90                   	nop
  101725:	90                   	nop
  101726:	90                   	nop
  101727:	90                   	nop
  101728:	90                   	nop
  101729:	90                   	nop
  10172a:	90                   	nop
  10172b:	90                   	nop
  10172c:	90                   	nop
  10172d:	90                   	nop
  10172e:	90                   	nop
  10172f:	90                   	nop
  101730:	90                   	nop
  101731:	90                   	nop
  101732:	90                   	nop
  101733:	90                   	nop
  101734:	90                   	nop
  101735:	90                   	nop
  101736:	90                   	nop
  101737:	90                   	nop
  101738:	90                   	nop
  101739:	90                   	nop
  10173a:	90                   	nop
  10173b:	90                   	nop
  10173c:	90                   	nop
  10173d:	90                   	nop
  10173e:	90                   	nop
  10173f:	90                   	nop
  101740:	90                   	nop
  101741:	90                   	nop
  101742:	90                   	nop
  101743:	90                   	nop
  101744:	90                   	nop
  101745:	90                   	nop
  101746:	90                   	nop
  101747:	90                   	nop
  101748:	90                   	nop
  101749:	90                   	nop
  10174a:	90                   	nop
  10174b:	90                   	nop
  10174c:	90                   	nop
  10174d:	90                   	nop
  10174e:	90                   	nop
  10174f:	90                   	nop
  101750:	90                   	nop
  101751:	90                   	nop
  101752:	90                   	nop
  101753:	90                   	nop
  101754:	90                   	nop
  101755:	90                   	nop
  101756:	90                   	nop
  101757:	90                   	nop
  101758:	90                   	nop
  101759:	90                   	nop
  10175a:	90                   	nop
  10175b:	90                   	nop
  10175c:	90                   	nop
  10175d:	90                   	nop
  10175e:	90                   	nop
  10175f:	90                   	nop
  101760:	90                   	nop
  101761:	90                   	nop
  101762:	90                   	nop
  101763:	90                   	nop
  101764:	90                   	nop
  101765:	90                   	nop
  101766:	90                   	nop
  101767:	90                   	nop
  101768:	90                   	nop
  101769:	90                   	nop
  10176a:	90                   	nop
  10176b:	90                   	nop
  10176c:	90                   	nop
  10176d:	90                   	nop
  10176e:	90                   	nop
  10176f:	90                   	nop
  101770:	90                   	nop
  101771:	90                   	nop
  101772:	90                   	nop
  101773:	90                   	nop
  101774:	90                   	nop
  101775:	90                   	nop
  101776:	90                   	nop
  101777:	90                   	nop
  101778:	90                   	nop
  101779:	90                   	nop
  10177a:	90                   	nop
  10177b:	90                   	nop
  10177c:	90                   	nop
  10177d:	90                   	nop
  10177e:	90                   	nop
  10177f:	90                   	nop
  101780:	90                   	nop
  101781:	90                   	nop
  101782:	90                   	nop
  101783:	90                   	nop
  101784:	90                   	nop
  101785:	90                   	nop
  101786:	90                   	nop
  101787:	90                   	nop
  101788:	90                   	nop
  101789:	90                   	nop
  10178a:	90                   	nop
  10178b:	90                   	nop
  10178c:	90                   	nop
  10178d:	90                   	nop
  10178e:	90                   	nop
  10178f:	90                   	nop
  101790:	90                   	nop
  101791:	90                   	nop
  101792:	90                   	nop
  101793:	90                   	nop
  101794:	90                   	nop
  101795:	90                   	nop
  101796:	90                   	nop
  101797:	90                   	nop
  101798:	90                   	nop
  101799:	90                   	nop
  10179a:	90                   	nop
  10179b:	90                   	nop
  10179c:	90                   	nop
  10179d:	90                   	nop
  10179e:	90                   	nop
  10179f:	90                   	nop
  1017a0:	90                   	nop
  1017a1:	90                   	nop
  1017a2:	90                   	nop
  1017a3:	90                   	nop
  1017a4:	90                   	nop
  1017a5:	90                   	nop
  1017a6:	90                   	nop
  1017a7:	90                   	nop
  1017a8:	90                   	nop
  1017a9:	90                   	nop
  1017aa:	90                   	nop
  1017ab:	90                   	nop
  1017ac:	90                   	nop
  1017ad:	90                   	nop
  1017ae:	90                   	nop
  1017af:	90                   	nop
  1017b0:	90                   	nop
  1017b1:	90                   	nop
  1017b2:	90                   	nop
  1017b3:	90                   	nop
  1017b4:	90                   	nop
  1017b5:	90                   	nop
  1017b6:	90                   	nop
  1017b7:	90                   	nop
  1017b8:	90                   	nop
  1017b9:	90                   	nop
  1017ba:	90                   	nop
  1017bb:	90                   	nop
  1017bc:	90                   	nop
  1017bd:	90                   	nop
  1017be:	90                   	nop
  1017bf:	90                   	nop
  1017c0:	90                   	nop
  1017c1:	90                   	nop
  1017c2:	90                   	nop
  1017c3:	90                   	nop
  1017c4:	90                   	nop
  1017c5:	90                   	nop
  1017c6:	90                   	nop
  1017c7:	90                   	nop
  1017c8:	90                   	nop
  1017c9:	90                   	nop
  1017ca:	90                   	nop
  1017cb:	90                   	nop
  1017cc:	90                   	nop
  1017cd:	90                   	nop
  1017ce:	90                   	nop
  1017cf:	90                   	nop
  1017d0:	90                   	nop
  1017d1:	90                   	nop
  1017d2:	90                   	nop
  1017d3:	90                   	nop
  1017d4:	90                   	nop
  1017d5:	90                   	nop
  1017d6:	90                   	nop
  1017d7:	90                   	nop
  1017d8:	90                   	nop
  1017d9:	90                   	nop
  1017da:	90                   	nop
  1017db:	90                   	nop
  1017dc:	90                   	nop
  1017dd:	90                   	nop
  1017de:	90                   	nop
  1017df:	90                   	nop
  1017e0:	90                   	nop
  1017e1:	90                   	nop
  1017e2:	90                   	nop
  1017e3:	90                   	nop
  1017e4:	90                   	nop
  1017e5:	90                   	nop
  1017e6:	90                   	nop
  1017e7:	90                   	nop
  1017e8:	90                   	nop
  1017e9:	90                   	nop
  1017ea:	90                   	nop
  1017eb:	90                   	nop
  1017ec:	90                   	nop
  1017ed:	90                   	nop
  1017ee:	90                   	nop
  1017ef:	90                   	nop
  1017f0:	90                   	nop
  1017f1:	90                   	nop
  1017f2:	90                   	nop
  1017f3:	90                   	nop
  1017f4:	90                   	nop
  1017f5:	90                   	nop
  1017f6:	90                   	nop
  1017f7:	90                   	nop
  1017f8:	90                   	nop
  1017f9:	90                   	nop
  1017fa:	90                   	nop
  1017fb:	90                   	nop
  1017fc:	90                   	nop
  1017fd:	90                   	nop
  1017fe:	90                   	nop
  1017ff:	90                   	nop
  101800:	90                   	nop
  101801:	90                   	nop
  101802:	90                   	nop
  101803:	90                   	nop
  101804:	90                   	nop
  101805:	90                   	nop
  101806:	90                   	nop
  101807:	90                   	nop
  101808:	90                   	nop
  101809:	90                   	nop
  10180a:	90                   	nop
  10180b:	90                   	nop
  10180c:	90                   	nop
  10180d:	90                   	nop
  10180e:	90                   	nop
  10180f:	90                   	nop
  101810:	90                   	nop
  101811:	90                   	nop
  101812:	90                   	nop
  101813:	90                   	nop
  101814:	90                   	nop
  101815:	90                   	nop
  101816:	90                   	nop
  101817:	90                   	nop
  101818:	90                   	nop
  101819:	90                   	nop
  10181a:	90                   	nop
  10181b:	90                   	nop
  10181c:	90                   	nop
  10181d:	90                   	nop
  10181e:	90                   	nop
  10181f:	90                   	nop
  101820:	90                   	nop
  101821:	90                   	nop
  101822:	90                   	nop
  101823:	90                   	nop
  101824:	90                   	nop
  101825:	90                   	nop
  101826:	90                   	nop
  101827:	90                   	nop
  101828:	90                   	nop
  101829:	90                   	nop
  10182a:	90                   	nop
  10182b:	90                   	nop
  10182c:	90                   	nop
  10182d:	90                   	nop
  10182e:	90                   	nop
  10182f:	90                   	nop
  101830:	90                   	nop
  101831:	90                   	nop
  101832:	90                   	nop
  101833:	90                   	nop
  101834:	90                   	nop
  101835:	90                   	nop
  101836:	90                   	nop
  101837:	90                   	nop
  101838:	90                   	nop
  101839:	90                   	nop
  10183a:	90                   	nop
  10183b:	90                   	nop
  10183c:	90                   	nop
  10183d:	90                   	nop
  10183e:	90                   	nop
  10183f:	90                   	nop
  101840:	90                   	nop
  101841:	90                   	nop
  101842:	90                   	nop
  101843:	90                   	nop
  101844:	90                   	nop
  101845:	90                   	nop
  101846:	90                   	nop
  101847:	90                   	nop
  101848:	90                   	nop
  101849:	90                   	nop
  10184a:	90                   	nop
  10184b:	90                   	nop
  10184c:	90                   	nop
  10184d:	90                   	nop
  10184e:	90                   	nop
  10184f:	90                   	nop
  101850:	90                   	nop
  101851:	90                   	nop
  101852:	90                   	nop
  101853:	90                   	nop
  101854:	90                   	nop
  101855:	90                   	nop
  101856:	90                   	nop
  101857:	90                   	nop
  101858:	90                   	nop
  101859:	90                   	nop
  10185a:	90                   	nop
  10185b:	90                   	nop
  10185c:	90                   	nop
  10185d:	90                   	nop
  10185e:	90                   	nop
  10185f:	90                   	nop
  101860:	90                   	nop
  101861:	90                   	nop
  101862:	90                   	nop
  101863:	90                   	nop
  101864:	90                   	nop
  101865:	90                   	nop
  101866:	90                   	nop
  101867:	90                   	nop
  101868:	90                   	nop
  101869:	90                   	nop
  10186a:	90                   	nop
  10186b:	90                   	nop
  10186c:	90                   	nop
  10186d:	90                   	nop
  10186e:	90                   	nop
  10186f:	90                   	nop
  101870:	90                   	nop
  101871:	90                   	nop
  101872:	90                   	nop
  101873:	90                   	nop
  101874:	90                   	nop
  101875:	90                   	nop
  101876:	90                   	nop
  101877:	90                   	nop
  101878:	90                   	nop
  101879:	90                   	nop
  10187a:	90                   	nop
  10187b:	90                   	nop
  10187c:	90                   	nop
  10187d:	90                   	nop
  10187e:	90                   	nop
  10187f:	90                   	nop
  101880:	90                   	nop
  101881:	90                   	nop
  101882:	90                   	nop
  101883:	90                   	nop
  101884:	90                   	nop
  101885:	90                   	nop
  101886:	90                   	nop
  101887:	90                   	nop
  101888:	90                   	nop
  101889:	90                   	nop
  10188a:	90                   	nop
  10188b:	90                   	nop
  10188c:	90                   	nop
  10188d:	90                   	nop
  10188e:	90                   	nop
  10188f:	90                   	nop
  101890:	90                   	nop
  101891:	90                   	nop
  101892:	90                   	nop
  101893:	90                   	nop
  101894:	90                   	nop
  101895:	90                   	nop
  101896:	90                   	nop
  101897:	90                   	nop
  101898:	90                   	nop
  101899:	90                   	nop
  10189a:	90                   	nop
  10189b:	90                   	nop
  10189c:	90                   	nop
  10189d:	90                   	nop
  10189e:	90                   	nop
  10189f:	90                   	nop
  1018a0:	90                   	nop
  1018a1:	90                   	nop
  1018a2:	90                   	nop
  1018a3:	90                   	nop
  1018a4:	90                   	nop
  1018a5:	90                   	nop
  1018a6:	90                   	nop
  1018a7:	90                   	nop
  1018a8:	90                   	nop
  1018a9:	90                   	nop
  1018aa:	90                   	nop
  1018ab:	90                   	nop
  1018ac:	90                   	nop
  1018ad:	90                   	nop
  1018ae:	90                   	nop
  1018af:	90                   	nop
  1018b0:	90                   	nop
  1018b1:	90                   	nop
  1018b2:	90                   	nop
  1018b3:	90                   	nop
  1018b4:	90                   	nop
  1018b5:	90                   	nop
  1018b6:	90                   	nop
  1018b7:	90                   	nop
  1018b8:	90                   	nop
  1018b9:	90                   	nop
  1018ba:	90                   	nop
  1018bb:	90                   	nop
  1018bc:	90                   	nop
  1018bd:	90                   	nop
  1018be:	90                   	nop
  1018bf:	90                   	nop
  1018c0:	90                   	nop
  1018c1:	90                   	nop
  1018c2:	90                   	nop
  1018c3:	90                   	nop
  1018c4:	90                   	nop
  1018c5:	90                   	nop
  1018c6:	90                   	nop
  1018c7:	90                   	nop
  1018c8:	90                   	nop
  1018c9:	90                   	nop
  1018ca:	90                   	nop
  1018cb:	90                   	nop
  1018cc:	90                   	nop
  1018cd:	90                   	nop
  1018ce:	90                   	nop
  1018cf:	90                   	nop
  1018d0:	90                   	nop
  1018d1:	90                   	nop
  1018d2:	90                   	nop
  1018d3:	90                   	nop
  1018d4:	90                   	nop
  1018d5:	90                   	nop
  1018d6:	90                   	nop
  1018d7:	90                   	nop
  1018d8:	90                   	nop
  1018d9:	90                   	nop
  1018da:	90                   	nop
  1018db:	90                   	nop
  1018dc:	90                   	nop
  1018dd:	90                   	nop
  1018de:	90                   	nop
  1018df:	90                   	nop
  1018e0:	90                   	nop
  1018e1:	90                   	nop
  1018e2:	90                   	nop
  1018e3:	90                   	nop
  1018e4:	90                   	nop
  1018e5:	90                   	nop
  1018e6:	90                   	nop
  1018e7:	90                   	nop
  1018e8:	90                   	nop
  1018e9:	90                   	nop
  1018ea:	90                   	nop
  1018eb:	90                   	nop
  1018ec:	90                   	nop
  1018ed:	90                   	nop
  1018ee:	90                   	nop
  1018ef:	90                   	nop
  1018f0:	90                   	nop
  1018f1:	90                   	nop
  1018f2:	90                   	nop
  1018f3:	90                   	nop
  1018f4:	90                   	nop
  1018f5:	90                   	nop
  1018f6:	90                   	nop
  1018f7:	90                   	nop
  1018f8:	90                   	nop
  1018f9:	90                   	nop
  1018fa:	90                   	nop
  1018fb:	90                   	nop
  1018fc:	90                   	nop
  1018fd:	90                   	nop
  1018fe:	90                   	nop
  1018ff:	90                   	nop
  101900:	90                   	nop
  101901:	90                   	nop
  101902:	90                   	nop
  101903:	90                   	nop
  101904:	90                   	nop
  101905:	90                   	nop
  101906:	90                   	nop
  101907:	90                   	nop
  101908:	90                   	nop
  101909:	90                   	nop
  10190a:	90                   	nop
  10190b:	90                   	nop
  10190c:	90                   	nop
  10190d:	90                   	nop
  10190e:	90                   	nop
  10190f:	90                   	nop
  101910:	90                   	nop
  101911:	90                   	nop
  101912:	90                   	nop
  101913:	90                   	nop
  101914:	90                   	nop
  101915:	90                   	nop
  101916:	90                   	nop
  101917:	90                   	nop
  101918:	90                   	nop
  101919:	90                   	nop
  10191a:	90                   	nop
  10191b:	90                   	nop
  10191c:	90                   	nop
  10191d:	90                   	nop
  10191e:	90                   	nop
  10191f:	90                   	nop
  101920:	90                   	nop
  101921:	90                   	nop
  101922:	90                   	nop
  101923:	90                   	nop
  101924:	90                   	nop
  101925:	90                   	nop
  101926:	90                   	nop
  101927:	90                   	nop
  101928:	90                   	nop
  101929:	90                   	nop
  10192a:	90                   	nop
  10192b:	90                   	nop
  10192c:	90                   	nop
  10192d:	90                   	nop
  10192e:	90                   	nop
  10192f:	90                   	nop
  101930:	90                   	nop
  101931:	90                   	nop
  101932:	90                   	nop
  101933:	90                   	nop
  101934:	90                   	nop
  101935:	90                   	nop
  101936:	90                   	nop
  101937:	90                   	nop
  101938:	90                   	nop
  101939:	90                   	nop
  10193a:	90                   	nop
  10193b:	90                   	nop
  10193c:	90                   	nop
  10193d:	90                   	nop
  10193e:	90                   	nop
  10193f:	90                   	nop
  101940:	90                   	nop
  101941:	90                   	nop
  101942:	90                   	nop
  101943:	90                   	nop
  101944:	90                   	nop
  101945:	90                   	nop
  101946:	90                   	nop
  101947:	90                   	nop
  101948:	90                   	nop
  101949:	90                   	nop
  10194a:	90                   	nop
  10194b:	90                   	nop
  10194c:	90                   	nop
  10194d:	90                   	nop
  10194e:	90                   	nop
  10194f:	90                   	nop
  101950:	90                   	nop
  101951:	90                   	nop
  101952:	90                   	nop
  101953:	90                   	nop
  101954:	90                   	nop
  101955:	90                   	nop
  101956:	90                   	nop
  101957:	90                   	nop
  101958:	90                   	nop
  101959:	90                   	nop
  10195a:	90                   	nop
  10195b:	90                   	nop
  10195c:	90                   	nop
  10195d:	90                   	nop
  10195e:	90                   	nop
  10195f:	90                   	nop
  101960:	90                   	nop
  101961:	90                   	nop
  101962:	90                   	nop
  101963:	90                   	nop
  101964:	90                   	nop
  101965:	90                   	nop
  101966:	90                   	nop
  101967:	90                   	nop
  101968:	90                   	nop
  101969:	90                   	nop
  10196a:	90                   	nop
  10196b:	90                   	nop
  10196c:	90                   	nop
  10196d:	90                   	nop
  10196e:	90                   	nop
  10196f:	90                   	nop
  101970:	90                   	nop
  101971:	90                   	nop
  101972:	90                   	nop
  101973:	90                   	nop
  101974:	90                   	nop
  101975:	90                   	nop
  101976:	90                   	nop
  101977:	90                   	nop
  101978:	90                   	nop
  101979:	90                   	nop
  10197a:	90                   	nop
  10197b:	90                   	nop
  10197c:	90                   	nop
  10197d:	90                   	nop
  10197e:	90                   	nop
  10197f:	90                   	nop
  101980:	90                   	nop
  101981:	90                   	nop
  101982:	90                   	nop
  101983:	90                   	nop
  101984:	90                   	nop
  101985:	90                   	nop
  101986:	90                   	nop
  101987:	90                   	nop
  101988:	90                   	nop
  101989:	90                   	nop
  10198a:	90                   	nop
  10198b:	90                   	nop
  10198c:	90                   	nop
  10198d:	90                   	nop
  10198e:	90                   	nop
  10198f:	90                   	nop
  101990:	90                   	nop
  101991:	90                   	nop
  101992:	90                   	nop
  101993:	90                   	nop
  101994:	90                   	nop
  101995:	90                   	nop
  101996:	90                   	nop
  101997:	90                   	nop
  101998:	90                   	nop
  101999:	90                   	nop
  10199a:	90                   	nop
  10199b:	90                   	nop
  10199c:	90                   	nop
  10199d:	90                   	nop
  10199e:	90                   	nop
  10199f:	90                   	nop
  1019a0:	90                   	nop
  1019a1:	90                   	nop
  1019a2:	90                   	nop
  1019a3:	90                   	nop
  1019a4:	90                   	nop
  1019a5:	90                   	nop
  1019a6:	90                   	nop
  1019a7:	90                   	nop
  1019a8:	90                   	nop
  1019a9:	90                   	nop
  1019aa:	90                   	nop
  1019ab:	90                   	nop
  1019ac:	90                   	nop
  1019ad:	90                   	nop
  1019ae:	90                   	nop
  1019af:	90                   	nop
  1019b0:	90                   	nop
  1019b1:	90                   	nop
  1019b2:	90                   	nop
  1019b3:	90                   	nop
  1019b4:	90                   	nop
  1019b5:	90                   	nop
  1019b6:	90                   	nop
  1019b7:	90                   	nop
  1019b8:	90                   	nop
  1019b9:	90                   	nop
  1019ba:	90                   	nop
  1019bb:	90                   	nop
  1019bc:	90                   	nop
  1019bd:	90                   	nop
  1019be:	90                   	nop
  1019bf:	90                   	nop
  1019c0:	90                   	nop
  1019c1:	90                   	nop
  1019c2:	90                   	nop
  1019c3:	90                   	nop
  1019c4:	90                   	nop
  1019c5:	90                   	nop
  1019c6:	90                   	nop
  1019c7:	90                   	nop
  1019c8:	90                   	nop
  1019c9:	90                   	nop
  1019ca:	90                   	nop
  1019cb:	90                   	nop
  1019cc:	90                   	nop
  1019cd:	90                   	nop
  1019ce:	90                   	nop
  1019cf:	90                   	nop
  1019d0:	90                   	nop
  1019d1:	90                   	nop
  1019d2:	90                   	nop
  1019d3:	90                   	nop
  1019d4:	90                   	nop
  1019d5:	90                   	nop
  1019d6:	90                   	nop
  1019d7:	90                   	nop
  1019d8:	90                   	nop
  1019d9:	90                   	nop
  1019da:	90                   	nop
  1019db:	90                   	nop
  1019dc:	90                   	nop
  1019dd:	90                   	nop
  1019de:	90                   	nop
  1019df:	90                   	nop
  1019e0:	90                   	nop
  1019e1:	90                   	nop
  1019e2:	90                   	nop
  1019e3:	90                   	nop
  1019e4:	90                   	nop
  1019e5:	90                   	nop
  1019e6:	90                   	nop
  1019e7:	90                   	nop
  1019e8:	90                   	nop
  1019e9:	90                   	nop
  1019ea:	90                   	nop
  1019eb:	90                   	nop
  1019ec:	90                   	nop
  1019ed:	90                   	nop
  1019ee:	90                   	nop
  1019ef:	90                   	nop
  1019f0:	90                   	nop
  1019f1:	90                   	nop
  1019f2:	90                   	nop
  1019f3:	90                   	nop
  1019f4:	90                   	nop
  1019f5:	90                   	nop
  1019f6:	90                   	nop
  1019f7:	90                   	nop
  1019f8:	90                   	nop
  1019f9:	90                   	nop
  1019fa:	90                   	nop
  1019fb:	90                   	nop
  1019fc:	90                   	nop
  1019fd:	90                   	nop
  1019fe:	90                   	nop
  1019ff:	90                   	nop
  101a00:	90                   	nop
  101a01:	90                   	nop
  101a02:	90                   	nop
  101a03:	90                   	nop
  101a04:	90                   	nop
  101a05:	90                   	nop
  101a06:	90                   	nop
  101a07:	90                   	nop
  101a08:	90                   	nop
  101a09:	90                   	nop
  101a0a:	90                   	nop
  101a0b:	90                   	nop
  101a0c:	90                   	nop
  101a0d:	90                   	nop
  101a0e:	90                   	nop
  101a0f:	90                   	nop
  101a10:	90                   	nop
  101a11:	90                   	nop
  101a12:	90                   	nop
  101a13:	90                   	nop
  101a14:	90                   	nop
  101a15:	90                   	nop
  101a16:	90                   	nop
  101a17:	90                   	nop
  101a18:	90                   	nop
  101a19:	90                   	nop
  101a1a:	90                   	nop
  101a1b:	90                   	nop
  101a1c:	90                   	nop
  101a1d:	90                   	nop
  101a1e:	90                   	nop
  101a1f:	90                   	nop
  101a20:	90                   	nop
  101a21:	90                   	nop
  101a22:	90                   	nop
  101a23:	90                   	nop
  101a24:	90                   	nop
  101a25:	90                   	nop
  101a26:	90                   	nop
  101a27:	90                   	nop
  101a28:	90                   	nop
  101a29:	90                   	nop
  101a2a:	90                   	nop
  101a2b:	90                   	nop
  101a2c:	90                   	nop
  101a2d:	90                   	nop
  101a2e:	90                   	nop
  101a2f:	90                   	nop
  101a30:	90                   	nop
  101a31:	90                   	nop
  101a32:	90                   	nop
  101a33:	90                   	nop
  101a34:	90                   	nop
  101a35:	90                   	nop
  101a36:	90                   	nop
  101a37:	90                   	nop
  101a38:	90                   	nop
  101a39:	90                   	nop
  101a3a:	90                   	nop
  101a3b:	90                   	nop
  101a3c:	90                   	nop
  101a3d:	90                   	nop
  101a3e:	90                   	nop
  101a3f:	90                   	nop
  101a40:	90                   	nop
  101a41:	90                   	nop
  101a42:	90                   	nop
  101a43:	90                   	nop
  101a44:	90                   	nop
  101a45:	90                   	nop
  101a46:	90                   	nop
  101a47:	90                   	nop
  101a48:	90                   	nop
  101a49:	90                   	nop
  101a4a:	90                   	nop
  101a4b:	90                   	nop
  101a4c:	90                   	nop
  101a4d:	90                   	nop
  101a4e:	90                   	nop
  101a4f:	90                   	nop
  101a50:	90                   	nop
  101a51:	90                   	nop
  101a52:	90                   	nop
  101a53:	90                   	nop
  101a54:	90                   	nop
  101a55:	90                   	nop
  101a56:	90                   	nop
  101a57:	90                   	nop
  101a58:	90                   	nop
  101a59:	90                   	nop
  101a5a:	90                   	nop
  101a5b:	90                   	nop
  101a5c:	90                   	nop
  101a5d:	90                   	nop
  101a5e:	90                   	nop
  101a5f:	90                   	nop
  101a60:	90                   	nop
  101a61:	90                   	nop
  101a62:	90                   	nop
  101a63:	90                   	nop
  101a64:	90                   	nop
  101a65:	90                   	nop
  101a66:	90                   	nop
  101a67:	90                   	nop
  101a68:	90                   	nop
  101a69:	90                   	nop
  101a6a:	90                   	nop
  101a6b:	90                   	nop
  101a6c:	90                   	nop
  101a6d:	90                   	nop
  101a6e:	90                   	nop
  101a6f:	90                   	nop
  101a70:	90                   	nop
  101a71:	90                   	nop
  101a72:	90                   	nop
  101a73:	90                   	nop
  101a74:	90                   	nop
  101a75:	90                   	nop
  101a76:	90                   	nop
  101a77:	90                   	nop
  101a78:	90                   	nop
  101a79:	90                   	nop
  101a7a:	90                   	nop
  101a7b:	90                   	nop
  101a7c:	90                   	nop
  101a7d:	90                   	nop
  101a7e:	90                   	nop
  101a7f:	90                   	nop
  101a80:	90                   	nop
  101a81:	90                   	nop
  101a82:	90                   	nop
  101a83:	90                   	nop
  101a84:	90                   	nop
  101a85:	90                   	nop
  101a86:	90                   	nop
  101a87:	90                   	nop
  101a88:	90                   	nop
  101a89:	90                   	nop
  101a8a:	90                   	nop
  101a8b:	90                   	nop
  101a8c:	90                   	nop
  101a8d:	90                   	nop
  101a8e:	90                   	nop
  101a8f:	90                   	nop
  101a90:	90                   	nop
  101a91:	90                   	nop
  101a92:	90                   	nop
  101a93:	90                   	nop
  101a94:	90                   	nop
  101a95:	90                   	nop
  101a96:	90                   	nop
  101a97:	90                   	nop
  101a98:	90                   	nop
  101a99:	90                   	nop
  101a9a:	90                   	nop
  101a9b:	90                   	nop
  101a9c:	90                   	nop
  101a9d:	90                   	nop
  101a9e:	90                   	nop
  101a9f:	90                   	nop
  101aa0:	90                   	nop
  101aa1:	90                   	nop
  101aa2:	90                   	nop
  101aa3:	90                   	nop
  101aa4:	90                   	nop
  101aa5:	90                   	nop
  101aa6:	90                   	nop
  101aa7:	90                   	nop
  101aa8:	90                   	nop
  101aa9:	90                   	nop
  101aaa:	90                   	nop
  101aab:	90                   	nop
  101aac:	90                   	nop
  101aad:	90                   	nop
  101aae:	90                   	nop
  101aaf:	90                   	nop
  101ab0:	90                   	nop
  101ab1:	90                   	nop
  101ab2:	90                   	nop
  101ab3:	90                   	nop
  101ab4:	90                   	nop
  101ab5:	90                   	nop
  101ab6:	90                   	nop
  101ab7:	90                   	nop
  101ab8:	90                   	nop
  101ab9:	90                   	nop
  101aba:	90                   	nop
  101abb:	90                   	nop
  101abc:	90                   	nop
  101abd:	90                   	nop
  101abe:	90                   	nop
  101abf:	90                   	nop
  101ac0:	90                   	nop
  101ac1:	90                   	nop
  101ac2:	90                   	nop
  101ac3:	90                   	nop
  101ac4:	90                   	nop
  101ac5:	90                   	nop
  101ac6:	90                   	nop
  101ac7:	90                   	nop
  101ac8:	90                   	nop
  101ac9:	90                   	nop
  101aca:	90                   	nop
  101acb:	90                   	nop
  101acc:	90                   	nop
  101acd:	90                   	nop
  101ace:	90                   	nop
  101acf:	90                   	nop
  101ad0:	90                   	nop
  101ad1:	90                   	nop
  101ad2:	90                   	nop
  101ad3:	90                   	nop
  101ad4:	90                   	nop
  101ad5:	90                   	nop
  101ad6:	90                   	nop
  101ad7:	90                   	nop
  101ad8:	90                   	nop
  101ad9:	90                   	nop
  101ada:	90                   	nop
  101adb:	90                   	nop
  101adc:	90                   	nop
  101add:	90                   	nop
  101ade:	90                   	nop
  101adf:	90                   	nop
  101ae0:	90                   	nop
  101ae1:	90                   	nop
  101ae2:	90                   	nop
  101ae3:	90                   	nop
  101ae4:	90                   	nop
  101ae5:	90                   	nop
  101ae6:	90                   	nop
  101ae7:	90                   	nop
  101ae8:	90                   	nop
  101ae9:	90                   	nop
  101aea:	90                   	nop
  101aeb:	90                   	nop
  101aec:	90                   	nop
  101aed:	90                   	nop
  101aee:	90                   	nop
  101aef:	90                   	nop
  101af0:	90                   	nop
  101af1:	90                   	nop
  101af2:	90                   	nop
  101af3:	90                   	nop
  101af4:	90                   	nop
  101af5:	90                   	nop
  101af6:	90                   	nop
  101af7:	90                   	nop
  101af8:	90                   	nop
  101af9:	90                   	nop
  101afa:	90                   	nop
  101afb:	90                   	nop
  101afc:	90                   	nop
  101afd:	90                   	nop
  101afe:	90                   	nop
  101aff:	90                   	nop
  101b00:	90                   	nop
  101b01:	90                   	nop
  101b02:	90                   	nop
  101b03:	90                   	nop
  101b04:	90                   	nop
  101b05:	90                   	nop
  101b06:	90                   	nop
  101b07:	90                   	nop
  101b08:	90                   	nop
  101b09:	90                   	nop
  101b0a:	90                   	nop
  101b0b:	90                   	nop
  101b0c:	90                   	nop
  101b0d:	90                   	nop
  101b0e:	90                   	nop
  101b0f:	90                   	nop
  101b10:	90                   	nop
  101b11:	90                   	nop
  101b12:	90                   	nop
  101b13:	90                   	nop
  101b14:	90                   	nop
  101b15:	90                   	nop
  101b16:	90                   	nop
  101b17:	90                   	nop
  101b18:	90                   	nop
  101b19:	90                   	nop
  101b1a:	90                   	nop
  101b1b:	90                   	nop
  101b1c:	90                   	nop
  101b1d:	90                   	nop
  101b1e:	90                   	nop
  101b1f:	90                   	nop
  101b20:	90                   	nop
  101b21:	90                   	nop
  101b22:	90                   	nop
  101b23:	90                   	nop
  101b24:	90                   	nop
  101b25:	90                   	nop
  101b26:	90                   	nop
  101b27:	90                   	nop
  101b28:	90                   	nop
  101b29:	90                   	nop
  101b2a:	90                   	nop
  101b2b:	90                   	nop
  101b2c:	90                   	nop
  101b2d:	90                   	nop
  101b2e:	90                   	nop
  101b2f:	90                   	nop
  101b30:	90                   	nop
  101b31:	90                   	nop
  101b32:	90                   	nop
  101b33:	90                   	nop
  101b34:	90                   	nop
  101b35:	90                   	nop
  101b36:	90                   	nop
  101b37:	90                   	nop
  101b38:	90                   	nop
  101b39:	90                   	nop
  101b3a:	90                   	nop
  101b3b:	90                   	nop
  101b3c:	90                   	nop
  101b3d:	90                   	nop
  101b3e:	90                   	nop
  101b3f:	90                   	nop
  101b40:	90                   	nop
  101b41:	90                   	nop
  101b42:	90                   	nop
  101b43:	90                   	nop
  101b44:	90                   	nop
  101b45:	90                   	nop
  101b46:	90                   	nop
  101b47:	90                   	nop
  101b48:	90                   	nop
  101b49:	90                   	nop
  101b4a:	90                   	nop
  101b4b:	90                   	nop
  101b4c:	90                   	nop
  101b4d:	90                   	nop
  101b4e:	90                   	nop
  101b4f:	90                   	nop
  101b50:	90                   	nop
  101b51:	90                   	nop
  101b52:	90                   	nop
  101b53:	90                   	nop
  101b54:	90                   	nop
  101b55:	90                   	nop
  101b56:	90                   	nop
  101b57:	90                   	nop
  101b58:	90                   	nop
  101b59:	90                   	nop
  101b5a:	90                   	nop
  101b5b:	90                   	nop
  101b5c:	90                   	nop
  101b5d:	90                   	nop
  101b5e:	90                   	nop
  101b5f:	90                   	nop
  101b60:	90                   	nop
  101b61:	90                   	nop
  101b62:	90                   	nop
  101b63:	90                   	nop
  101b64:	90                   	nop
  101b65:	90                   	nop
  101b66:	90                   	nop
  101b67:	90                   	nop
  101b68:	90                   	nop
  101b69:	90                   	nop
  101b6a:	90                   	nop
  101b6b:	90                   	nop
  101b6c:	90                   	nop
  101b6d:	90                   	nop
  101b6e:	90                   	nop
  101b6f:	90                   	nop
  101b70:	90                   	nop
  101b71:	90                   	nop
  101b72:	90                   	nop
  101b73:	90                   	nop
  101b74:	90                   	nop
  101b75:	90                   	nop
  101b76:	90                   	nop
  101b77:	90                   	nop
  101b78:	90                   	nop
  101b79:	90                   	nop
  101b7a:	90                   	nop
  101b7b:	90                   	nop
  101b7c:	90                   	nop
  101b7d:	90                   	nop
  101b7e:	90                   	nop
  101b7f:	90                   	nop
  101b80:	90                   	nop
  101b81:	90                   	nop
  101b82:	90                   	nop
  101b83:	90                   	nop
  101b84:	90                   	nop
  101b85:	90                   	nop
  101b86:	90                   	nop
  101b87:	90                   	nop
  101b88:	90                   	nop
  101b89:	90                   	nop
  101b8a:	90                   	nop
  101b8b:	90                   	nop
  101b8c:	90                   	nop
  101b8d:	90                   	nop
  101b8e:	90                   	nop
  101b8f:	90                   	nop
  101b90:	90                   	nop
  101b91:	90                   	nop
  101b92:	90                   	nop
  101b93:	90                   	nop
  101b94:	90                   	nop
  101b95:	90                   	nop
  101b96:	90                   	nop
  101b97:	90                   	nop
  101b98:	90                   	nop
  101b99:	90                   	nop
  101b9a:	90                   	nop
  101b9b:	90                   	nop
  101b9c:	90                   	nop
  101b9d:	90                   	nop
  101b9e:	90                   	nop
  101b9f:	90                   	nop
  101ba0:	90                   	nop
  101ba1:	90                   	nop
  101ba2:	90                   	nop
  101ba3:	90                   	nop
  101ba4:	90                   	nop
  101ba5:	90                   	nop
  101ba6:	90                   	nop
  101ba7:	90                   	nop
  101ba8:	90                   	nop
  101ba9:	90                   	nop
  101baa:	90                   	nop
  101bab:	90                   	nop
  101bac:	90                   	nop
  101bad:	90                   	nop
  101bae:	90                   	nop
  101baf:	90                   	nop
  101bb0:	90                   	nop
  101bb1:	90                   	nop
  101bb2:	90                   	nop
  101bb3:	90                   	nop
  101bb4:	90                   	nop
  101bb5:	90                   	nop
  101bb6:	90                   	nop
  101bb7:	90                   	nop
  101bb8:	90                   	nop
  101bb9:	90                   	nop
  101bba:	90                   	nop
  101bbb:	90                   	nop
  101bbc:	90                   	nop
  101bbd:	90                   	nop
  101bbe:	90                   	nop
  101bbf:	90                   	nop
  101bc0:	90                   	nop
  101bc1:	90                   	nop
  101bc2:	90                   	nop
  101bc3:	90                   	nop
  101bc4:	90                   	nop
  101bc5:	90                   	nop
  101bc6:	90                   	nop
  101bc7:	90                   	nop
  101bc8:	90                   	nop
  101bc9:	90                   	nop
  101bca:	90                   	nop
  101bcb:	90                   	nop
  101bcc:	90                   	nop
  101bcd:	90                   	nop
  101bce:	90                   	nop
  101bcf:	90                   	nop
  101bd0:	90                   	nop
  101bd1:	90                   	nop
  101bd2:	90                   	nop
  101bd3:	90                   	nop
  101bd4:	90                   	nop
  101bd5:	90                   	nop
  101bd6:	90                   	nop
  101bd7:	90                   	nop
  101bd8:	90                   	nop
  101bd9:	90                   	nop
  101bda:	90                   	nop
  101bdb:	90                   	nop
  101bdc:	90                   	nop
  101bdd:	90                   	nop
  101bde:	90                   	nop
  101bdf:	90                   	nop
  101be0:	90                   	nop
  101be1:	90                   	nop
  101be2:	90                   	nop
  101be3:	90                   	nop
  101be4:	90                   	nop
  101be5:	90                   	nop
  101be6:	90                   	nop
  101be7:	90                   	nop
  101be8:	90                   	nop
  101be9:	90                   	nop
  101bea:	90                   	nop
  101beb:	90                   	nop
  101bec:	90                   	nop
  101bed:	90                   	nop
  101bee:	90                   	nop
  101bef:	90                   	nop
  101bf0:	90                   	nop
  101bf1:	90                   	nop
  101bf2:	90                   	nop
  101bf3:	90                   	nop
  101bf4:	90                   	nop
  101bf5:	90                   	nop
  101bf6:	90                   	nop
  101bf7:	90                   	nop
  101bf8:	90                   	nop
  101bf9:	90                   	nop
  101bfa:	90                   	nop
  101bfb:	90                   	nop
  101bfc:	90                   	nop
  101bfd:	90                   	nop
  101bfe:	90                   	nop
  101bff:	90                   	nop
  101c00:	90                   	nop
  101c01:	90                   	nop
  101c02:	90                   	nop
  101c03:	90                   	nop
  101c04:	90                   	nop
  101c05:	90                   	nop
  101c06:	90                   	nop
  101c07:	90                   	nop
  101c08:	90                   	nop
  101c09:	90                   	nop
  101c0a:	90                   	nop
  101c0b:	90                   	nop
  101c0c:	90                   	nop
  101c0d:	90                   	nop
  101c0e:	90                   	nop
  101c0f:	90                   	nop
  101c10:	90                   	nop
  101c11:	90                   	nop
  101c12:	90                   	nop
  101c13:	90                   	nop
  101c14:	90                   	nop
  101c15:	90                   	nop
  101c16:	90                   	nop
  101c17:	90                   	nop
  101c18:	90                   	nop
  101c19:	90                   	nop
  101c1a:	90                   	nop
  101c1b:	90                   	nop
  101c1c:	90                   	nop
  101c1d:	90                   	nop
  101c1e:	90                   	nop
  101c1f:	90                   	nop
  101c20:	90                   	nop
  101c21:	90                   	nop
  101c22:	90                   	nop
  101c23:	90                   	nop
  101c24:	90                   	nop
  101c25:	90                   	nop
  101c26:	90                   	nop
  101c27:	90                   	nop
  101c28:	90                   	nop
  101c29:	90                   	nop
  101c2a:	90                   	nop
  101c2b:	90                   	nop
  101c2c:	90                   	nop
  101c2d:	90                   	nop
  101c2e:	90                   	nop
  101c2f:	90                   	nop
  101c30:	90                   	nop
  101c31:	90                   	nop
  101c32:	90                   	nop
  101c33:	90                   	nop
  101c34:	90                   	nop
  101c35:	90                   	nop
  101c36:	90                   	nop
  101c37:	90                   	nop
  101c38:	90                   	nop
  101c39:	90                   	nop
  101c3a:	90                   	nop
  101c3b:	90                   	nop
  101c3c:	90                   	nop
  101c3d:	90                   	nop
  101c3e:	90                   	nop
  101c3f:	90                   	nop
  101c40:	90                   	nop
  101c41:	90                   	nop
  101c42:	90                   	nop
  101c43:	90                   	nop
  101c44:	90                   	nop
  101c45:	90                   	nop
  101c46:	90                   	nop
  101c47:	90                   	nop
  101c48:	90                   	nop
  101c49:	90                   	nop
  101c4a:	90                   	nop
  101c4b:	90                   	nop
  101c4c:	90                   	nop
  101c4d:	90                   	nop
  101c4e:	90                   	nop
  101c4f:	90                   	nop
  101c50:	90                   	nop
  101c51:	90                   	nop
  101c52:	90                   	nop
  101c53:	90                   	nop
  101c54:	90                   	nop
  101c55:	90                   	nop
  101c56:	90                   	nop
  101c57:	90                   	nop
  101c58:	90                   	nop
  101c59:	90                   	nop
  101c5a:	90                   	nop
  101c5b:	90                   	nop
  101c5c:	90                   	nop
  101c5d:	90                   	nop
  101c5e:	90                   	nop
  101c5f:	90                   	nop
  101c60:	90                   	nop
  101c61:	90                   	nop
  101c62:	90                   	nop
  101c63:	90                   	nop
  101c64:	90                   	nop
  101c65:	90                   	nop
  101c66:	90                   	nop
  101c67:	90                   	nop
  101c68:	90                   	nop
  101c69:	90                   	nop
  101c6a:	90                   	nop
  101c6b:	90                   	nop
  101c6c:	90                   	nop
  101c6d:	90                   	nop
  101c6e:	90                   	nop
  101c6f:	90                   	nop
  101c70:	90                   	nop
  101c71:	90                   	nop
  101c72:	90                   	nop
  101c73:	90                   	nop
  101c74:	90                   	nop
  101c75:	90                   	nop
  101c76:	90                   	nop
  101c77:	90                   	nop
  101c78:	90                   	nop
  101c79:	90                   	nop
  101c7a:	90                   	nop
  101c7b:	90                   	nop
  101c7c:	90                   	nop
  101c7d:	90                   	nop
  101c7e:	90                   	nop
  101c7f:	90                   	nop
  101c80:	90                   	nop
  101c81:	90                   	nop
  101c82:	90                   	nop
  101c83:	90                   	nop
  101c84:	90                   	nop
  101c85:	90                   	nop
  101c86:	90                   	nop
  101c87:	90                   	nop
  101c88:	90                   	nop
  101c89:	90                   	nop
  101c8a:	90                   	nop
  101c8b:	90                   	nop
  101c8c:	90                   	nop
  101c8d:	90                   	nop
  101c8e:	90                   	nop
  101c8f:	90                   	nop
  101c90:	90                   	nop
  101c91:	90                   	nop
  101c92:	90                   	nop
  101c93:	90                   	nop
  101c94:	90                   	nop
  101c95:	90                   	nop
  101c96:	90                   	nop
  101c97:	90                   	nop
  101c98:	90                   	nop
  101c99:	90                   	nop
  101c9a:	90                   	nop
  101c9b:	90                   	nop
  101c9c:	90                   	nop
  101c9d:	90                   	nop
  101c9e:	90                   	nop
  101c9f:	90                   	nop
  101ca0:	90                   	nop
  101ca1:	90                   	nop
  101ca2:	90                   	nop
  101ca3:	90                   	nop
  101ca4:	90                   	nop
  101ca5:	90                   	nop
  101ca6:	90                   	nop
  101ca7:	90                   	nop
  101ca8:	90                   	nop
  101ca9:	90                   	nop
  101caa:	90                   	nop
  101cab:	90                   	nop
  101cac:	90                   	nop
  101cad:	90                   	nop
  101cae:	90                   	nop
  101caf:	90                   	nop
  101cb0:	90                   	nop
  101cb1:	90                   	nop
  101cb2:	90                   	nop
  101cb3:	90                   	nop
  101cb4:	90                   	nop
  101cb5:	90                   	nop
  101cb6:	90                   	nop
  101cb7:	90                   	nop
  101cb8:	90                   	nop
  101cb9:	90                   	nop
  101cba:	90                   	nop
  101cbb:	90                   	nop
  101cbc:	90                   	nop
  101cbd:	90                   	nop
  101cbe:	90                   	nop
  101cbf:	90                   	nop
  101cc0:	90                   	nop
  101cc1:	90                   	nop
  101cc2:	90                   	nop
  101cc3:	90                   	nop
  101cc4:	90                   	nop
  101cc5:	90                   	nop
  101cc6:	90                   	nop
  101cc7:	90                   	nop
  101cc8:	90                   	nop
  101cc9:	90                   	nop
  101cca:	90                   	nop
  101ccb:	90                   	nop
  101ccc:	90                   	nop
  101ccd:	90                   	nop
  101cce:	90                   	nop
  101ccf:	90                   	nop
  101cd0:	90                   	nop
  101cd1:	90                   	nop
  101cd2:	90                   	nop
  101cd3:	90                   	nop
  101cd4:	90                   	nop
  101cd5:	90                   	nop
  101cd6:	90                   	nop
  101cd7:	90                   	nop
  101cd8:	90                   	nop
  101cd9:	90                   	nop
  101cda:	90                   	nop
  101cdb:	90                   	nop
  101cdc:	90                   	nop
  101cdd:	90                   	nop
  101cde:	90                   	nop
  101cdf:	90                   	nop
  101ce0:	90                   	nop
  101ce1:	90                   	nop
  101ce2:	90                   	nop
  101ce3:	90                   	nop
  101ce4:	90                   	nop
  101ce5:	90                   	nop
  101ce6:	90                   	nop
  101ce7:	90                   	nop
  101ce8:	90                   	nop
  101ce9:	90                   	nop
  101cea:	90                   	nop
  101ceb:	90                   	nop
  101cec:	90                   	nop
  101ced:	90                   	nop
  101cee:	90                   	nop
  101cef:	90                   	nop
  101cf0:	90                   	nop
  101cf1:	90                   	nop
  101cf2:	90                   	nop
  101cf3:	90                   	nop
  101cf4:	90                   	nop
  101cf5:	90                   	nop
  101cf6:	90                   	nop
  101cf7:	90                   	nop
  101cf8:	90                   	nop
  101cf9:	90                   	nop
  101cfa:	90                   	nop
  101cfb:	90                   	nop
  101cfc:	90                   	nop
  101cfd:	90                   	nop
  101cfe:	90                   	nop
  101cff:	90                   	nop
  101d00:	90                   	nop
  101d01:	90                   	nop
  101d02:	90                   	nop
  101d03:	90                   	nop
  101d04:	90                   	nop
  101d05:	90                   	nop
  101d06:	90                   	nop
  101d07:	90                   	nop
  101d08:	90                   	nop
  101d09:	90                   	nop
  101d0a:	90                   	nop
  101d0b:	90                   	nop
  101d0c:	90                   	nop
  101d0d:	90                   	nop
  101d0e:	90                   	nop
  101d0f:	90                   	nop
  101d10:	90                   	nop
  101d11:	90                   	nop
  101d12:	90                   	nop
  101d13:	90                   	nop
  101d14:	90                   	nop
  101d15:	90                   	nop
  101d16:	90                   	nop
  101d17:	90                   	nop
  101d18:	90                   	nop
  101d19:	90                   	nop
  101d1a:	90                   	nop
  101d1b:	90                   	nop
  101d1c:	90                   	nop
  101d1d:	90                   	nop
  101d1e:	90                   	nop
  101d1f:	90                   	nop
  101d20:	90                   	nop
  101d21:	90                   	nop
  101d22:	90                   	nop
  101d23:	90                   	nop
  101d24:	90                   	nop
  101d25:	90                   	nop
  101d26:	90                   	nop
  101d27:	90                   	nop
  101d28:	90                   	nop
  101d29:	90                   	nop
  101d2a:	90                   	nop
  101d2b:	90                   	nop
  101d2c:	90                   	nop
  101d2d:	90                   	nop
  101d2e:	90                   	nop
  101d2f:	90                   	nop
  101d30:	90                   	nop
  101d31:	90                   	nop
  101d32:	90                   	nop
  101d33:	90                   	nop
  101d34:	90                   	nop
  101d35:	90                   	nop
  101d36:	90                   	nop
  101d37:	90                   	nop
  101d38:	90                   	nop
  101d39:	90                   	nop
  101d3a:	90                   	nop
  101d3b:	90                   	nop
  101d3c:	90                   	nop
  101d3d:	90                   	nop
  101d3e:	90                   	nop
  101d3f:	90                   	nop
  101d40:	90                   	nop
  101d41:	90                   	nop
  101d42:	90                   	nop
  101d43:	90                   	nop
  101d44:	90                   	nop
  101d45:	90                   	nop
  101d46:	90                   	nop
  101d47:	90                   	nop
  101d48:	90                   	nop
  101d49:	90                   	nop
  101d4a:	90                   	nop
  101d4b:	90                   	nop
  101d4c:	90                   	nop
  101d4d:	90                   	nop
  101d4e:	90                   	nop
  101d4f:	90                   	nop
  101d50:	90                   	nop
  101d51:	90                   	nop
  101d52:	90                   	nop
  101d53:	90                   	nop
  101d54:	90                   	nop
  101d55:	90                   	nop
  101d56:	90                   	nop
  101d57:	90                   	nop
  101d58:	90                   	nop
  101d59:	90                   	nop
  101d5a:	90                   	nop
  101d5b:	90                   	nop
  101d5c:	90                   	nop
  101d5d:	90                   	nop
  101d5e:	90                   	nop
  101d5f:	90                   	nop
  101d60:	90                   	nop
  101d61:	90                   	nop
  101d62:	90                   	nop
  101d63:	90                   	nop
  101d64:	90                   	nop
  101d65:	90                   	nop
  101d66:	90                   	nop
  101d67:	90                   	nop
  101d68:	90                   	nop
  101d69:	90                   	nop
  101d6a:	90                   	nop
  101d6b:	90                   	nop
  101d6c:	90                   	nop
  101d6d:	90                   	nop
  101d6e:	90                   	nop
  101d6f:	90                   	nop
  101d70:	90                   	nop
  101d71:	90                   	nop
  101d72:	90                   	nop
  101d73:	90                   	nop
  101d74:	90                   	nop
  101d75:	90                   	nop
  101d76:	90                   	nop
  101d77:	90                   	nop
  101d78:	90                   	nop
  101d79:	90                   	nop
  101d7a:	90                   	nop
  101d7b:	90                   	nop
  101d7c:	90                   	nop
  101d7d:	90                   	nop
  101d7e:	90                   	nop
  101d7f:	90                   	nop
  101d80:	90                   	nop
  101d81:	90                   	nop
  101d82:	90                   	nop
  101d83:	90                   	nop
  101d84:	90                   	nop
  101d85:	90                   	nop
  101d86:	90                   	nop
  101d87:	90                   	nop
  101d88:	90                   	nop
  101d89:	90                   	nop
  101d8a:	90                   	nop
  101d8b:	90                   	nop
  101d8c:	90                   	nop
  101d8d:	90                   	nop
  101d8e:	90                   	nop
  101d8f:	90                   	nop
  101d90:	90                   	nop
  101d91:	90                   	nop
  101d92:	90                   	nop
  101d93:	90                   	nop
  101d94:	90                   	nop
  101d95:	90                   	nop
  101d96:	90                   	nop
  101d97:	90                   	nop
  101d98:	90                   	nop
  101d99:	90                   	nop
  101d9a:	90                   	nop
  101d9b:	90                   	nop
  101d9c:	90                   	nop
  101d9d:	90                   	nop
  101d9e:	90                   	nop
  101d9f:	90                   	nop
  101da0:	90                   	nop
  101da1:	90                   	nop
  101da2:	90                   	nop
  101da3:	90                   	nop
  101da4:	90                   	nop
  101da5:	90                   	nop
  101da6:	90                   	nop
  101da7:	90                   	nop
  101da8:	90                   	nop
  101da9:	90                   	nop
  101daa:	90                   	nop
  101dab:	90                   	nop
  101dac:	90                   	nop
  101dad:	90                   	nop
  101dae:	90                   	nop
  101daf:	90                   	nop
  101db0:	90                   	nop
  101db1:	90                   	nop
  101db2:	90                   	nop
  101db3:	90                   	nop
  101db4:	90                   	nop
  101db5:	90                   	nop
  101db6:	90                   	nop
  101db7:	90                   	nop
  101db8:	90                   	nop
  101db9:	90                   	nop
  101dba:	90                   	nop
  101dbb:	90                   	nop
  101dbc:	90                   	nop
  101dbd:	90                   	nop
  101dbe:	90                   	nop
  101dbf:	90                   	nop
  101dc0:	90                   	nop
  101dc1:	90                   	nop
  101dc2:	90                   	nop
  101dc3:	90                   	nop
  101dc4:	90                   	nop
  101dc5:	90                   	nop
  101dc6:	90                   	nop
  101dc7:	90                   	nop
  101dc8:	90                   	nop
  101dc9:	90                   	nop
  101dca:	90                   	nop
  101dcb:	90                   	nop
  101dcc:	90                   	nop
  101dcd:	90                   	nop
  101dce:	90                   	nop
  101dcf:	90                   	nop
  101dd0:	90                   	nop
  101dd1:	90                   	nop
  101dd2:	90                   	nop
  101dd3:	90                   	nop
  101dd4:	90                   	nop
  101dd5:	90                   	nop
  101dd6:	90                   	nop
  101dd7:	90                   	nop
  101dd8:	90                   	nop
  101dd9:	90                   	nop
  101dda:	90                   	nop
  101ddb:	90                   	nop
  101ddc:	90                   	nop
  101ddd:	90                   	nop
  101dde:	90                   	nop
  101ddf:	90                   	nop
  101de0:	90                   	nop
  101de1:	90                   	nop
  101de2:	90                   	nop
  101de3:	90                   	nop
  101de4:	90                   	nop
  101de5:	90                   	nop
  101de6:	90                   	nop
  101de7:	90                   	nop
  101de8:	90                   	nop
  101de9:	90                   	nop
  101dea:	90                   	nop
  101deb:	90                   	nop
  101dec:	90                   	nop
  101ded:	90                   	nop
  101dee:	90                   	nop
  101def:	90                   	nop
  101df0:	90                   	nop
  101df1:	90                   	nop
  101df2:	90                   	nop
  101df3:	90                   	nop
  101df4:	90                   	nop
  101df5:	90                   	nop
  101df6:	90                   	nop
  101df7:	90                   	nop
  101df8:	90                   	nop
  101df9:	90                   	nop
  101dfa:	90                   	nop
  101dfb:	90                   	nop
  101dfc:	90                   	nop
  101dfd:	90                   	nop
  101dfe:	90                   	nop
  101dff:	90                   	nop
  101e00:	90                   	nop
  101e01:	90                   	nop
  101e02:	90                   	nop
  101e03:	90                   	nop
  101e04:	90                   	nop
  101e05:	90                   	nop
  101e06:	90                   	nop
  101e07:	90                   	nop
  101e08:	90                   	nop
  101e09:	90                   	nop
  101e0a:	90                   	nop
  101e0b:	90                   	nop
  101e0c:	90                   	nop
  101e0d:	90                   	nop
  101e0e:	90                   	nop
  101e0f:	90                   	nop
  101e10:	90                   	nop
  101e11:	90                   	nop
  101e12:	90                   	nop
  101e13:	90                   	nop
  101e14:	90                   	nop
  101e15:	90                   	nop
  101e16:	90                   	nop
  101e17:	90                   	nop
  101e18:	90                   	nop
  101e19:	90                   	nop
  101e1a:	90                   	nop
  101e1b:	90                   	nop
  101e1c:	90                   	nop
  101e1d:	90                   	nop
  101e1e:	90                   	nop
  101e1f:	90                   	nop
  101e20:	90                   	nop
  101e21:	90                   	nop
  101e22:	90                   	nop
  101e23:	90                   	nop
  101e24:	90                   	nop
  101e25:	90                   	nop
  101e26:	90                   	nop
  101e27:	90                   	nop
  101e28:	90                   	nop
  101e29:	90                   	nop
  101e2a:	90                   	nop
  101e2b:	90                   	nop
  101e2c:	90                   	nop
  101e2d:	90                   	nop
  101e2e:	90                   	nop
  101e2f:	90                   	nop
  101e30:	90                   	nop
  101e31:	90                   	nop
  101e32:	90                   	nop
  101e33:	90                   	nop
  101e34:	90                   	nop
  101e35:	90                   	nop
  101e36:	90                   	nop
  101e37:	90                   	nop
  101e38:	90                   	nop
  101e39:	90                   	nop
  101e3a:	90                   	nop
  101e3b:	90                   	nop
  101e3c:	90                   	nop
  101e3d:	90                   	nop
  101e3e:	90                   	nop
  101e3f:	90                   	nop
  101e40:	90                   	nop
  101e41:	90                   	nop
  101e42:	90                   	nop
  101e43:	90                   	nop
  101e44:	90                   	nop
  101e45:	90                   	nop
  101e46:	90                   	nop
  101e47:	90                   	nop
  101e48:	90                   	nop
  101e49:	90                   	nop
  101e4a:	90                   	nop
  101e4b:	90                   	nop
  101e4c:	90                   	nop
  101e4d:	90                   	nop
  101e4e:	90                   	nop
  101e4f:	90                   	nop
  101e50:	90                   	nop
  101e51:	90                   	nop
  101e52:	90                   	nop
  101e53:	90                   	nop
  101e54:	90                   	nop
  101e55:	90                   	nop
  101e56:	90                   	nop
  101e57:	90                   	nop
  101e58:	90                   	nop
  101e59:	90                   	nop
  101e5a:	90                   	nop
  101e5b:	90                   	nop
  101e5c:	90                   	nop
  101e5d:	90                   	nop
  101e5e:	90                   	nop
  101e5f:	90                   	nop
  101e60:	90                   	nop
  101e61:	90                   	nop
  101e62:	90                   	nop
  101e63:	90                   	nop
  101e64:	90                   	nop
  101e65:	90                   	nop
  101e66:	90                   	nop
  101e67:	90                   	nop
  101e68:	90                   	nop
  101e69:	90                   	nop
  101e6a:	90                   	nop
  101e6b:	90                   	nop
  101e6c:	90                   	nop
  101e6d:	90                   	nop
  101e6e:	90                   	nop
  101e6f:	90                   	nop
  101e70:	90                   	nop
  101e71:	90                   	nop
  101e72:	90                   	nop
  101e73:	90                   	nop
  101e74:	90                   	nop
  101e75:	90                   	nop
  101e76:	90                   	nop
  101e77:	90                   	nop
  101e78:	90                   	nop
  101e79:	90                   	nop
  101e7a:	90                   	nop
  101e7b:	90                   	nop
  101e7c:	90                   	nop
  101e7d:	90                   	nop
  101e7e:	90                   	nop
  101e7f:	90                   	nop
  101e80:	90                   	nop
  101e81:	90                   	nop
  101e82:	90                   	nop
  101e83:	90                   	nop
  101e84:	90                   	nop
  101e85:	90                   	nop
  101e86:	90                   	nop
  101e87:	90                   	nop
  101e88:	90                   	nop
  101e89:	90                   	nop
  101e8a:	90                   	nop
  101e8b:	90                   	nop
  101e8c:	90                   	nop
  101e8d:	90                   	nop
  101e8e:	90                   	nop
  101e8f:	90                   	nop
  101e90:	90                   	nop
  101e91:	90                   	nop
  101e92:	90                   	nop
  101e93:	90                   	nop
  101e94:	90                   	nop
  101e95:	90                   	nop
  101e96:	90                   	nop
  101e97:	90                   	nop
  101e98:	90                   	nop
  101e99:	90                   	nop
  101e9a:	90                   	nop
  101e9b:	90                   	nop
  101e9c:	90                   	nop
  101e9d:	90                   	nop
  101e9e:	90                   	nop
  101e9f:	90                   	nop
  101ea0:	90                   	nop
  101ea1:	90                   	nop
  101ea2:	90                   	nop
  101ea3:	90                   	nop
  101ea4:	90                   	nop
  101ea5:	90                   	nop
  101ea6:	90                   	nop
  101ea7:	90                   	nop
  101ea8:	90                   	nop
  101ea9:	90                   	nop
  101eaa:	90                   	nop
  101eab:	90                   	nop
  101eac:	90                   	nop
  101ead:	90                   	nop
  101eae:	90                   	nop
  101eaf:	90                   	nop
  101eb0:	90                   	nop
  101eb1:	90                   	nop
  101eb2:	90                   	nop
  101eb3:	90                   	nop
  101eb4:	90                   	nop
  101eb5:	90                   	nop
  101eb6:	90                   	nop
  101eb7:	90                   	nop
  101eb8:	90                   	nop
  101eb9:	90                   	nop
  101eba:	90                   	nop
  101ebb:	90                   	nop
  101ebc:	90                   	nop
  101ebd:	90                   	nop
  101ebe:	90                   	nop
  101ebf:	90                   	nop
  101ec0:	90                   	nop
  101ec1:	90                   	nop
  101ec2:	90                   	nop
  101ec3:	90                   	nop
  101ec4:	90                   	nop
  101ec5:	90                   	nop
  101ec6:	90                   	nop
  101ec7:	90                   	nop
  101ec8:	90                   	nop
  101ec9:	90                   	nop
  101eca:	90                   	nop
  101ecb:	90                   	nop
  101ecc:	90                   	nop
  101ecd:	90                   	nop
  101ece:	90                   	nop
  101ecf:	90                   	nop
  101ed0:	90                   	nop
  101ed1:	90                   	nop
  101ed2:	90                   	nop
  101ed3:	90                   	nop
  101ed4:	90                   	nop
  101ed5:	90                   	nop
  101ed6:	90                   	nop
  101ed7:	90                   	nop
  101ed8:	90                   	nop
  101ed9:	90                   	nop
  101eda:	90                   	nop
  101edb:	90                   	nop
  101edc:	90                   	nop
  101edd:	90                   	nop
  101ede:	90                   	nop
  101edf:	90                   	nop
  101ee0:	90                   	nop
  101ee1:	90                   	nop
  101ee2:	90                   	nop
  101ee3:	90                   	nop
  101ee4:	90                   	nop
  101ee5:	90                   	nop
  101ee6:	90                   	nop
  101ee7:	90                   	nop
  101ee8:	90                   	nop
  101ee9:	90                   	nop
  101eea:	90                   	nop
  101eeb:	90                   	nop
  101eec:	90                   	nop
  101eed:	90                   	nop
  101eee:	90                   	nop
  101eef:	90                   	nop
  101ef0:	90                   	nop
  101ef1:	90                   	nop
  101ef2:	90                   	nop
  101ef3:	90                   	nop
  101ef4:	90                   	nop
  101ef5:	90                   	nop
  101ef6:	90                   	nop
  101ef7:	90                   	nop
  101ef8:	90                   	nop
  101ef9:	90                   	nop
  101efa:	90                   	nop
  101efb:	90                   	nop
  101efc:	90                   	nop
  101efd:	90                   	nop
  101efe:	90                   	nop
  101eff:	90                   	nop
  101f00:	90                   	nop
  101f01:	90                   	nop
  101f02:	90                   	nop
  101f03:	90                   	nop
  101f04:	90                   	nop
  101f05:	90                   	nop
  101f06:	90                   	nop
  101f07:	90                   	nop
  101f08:	90                   	nop
  101f09:	90                   	nop
  101f0a:	90                   	nop
  101f0b:	90                   	nop
  101f0c:	90                   	nop
  101f0d:	90                   	nop
  101f0e:	90                   	nop
  101f0f:	90                   	nop
  101f10:	90                   	nop
  101f11:	90                   	nop
  101f12:	90                   	nop
  101f13:	90                   	nop
  101f14:	90                   	nop
  101f15:	90                   	nop
  101f16:	90                   	nop
  101f17:	90                   	nop
  101f18:	90                   	nop
  101f19:	90                   	nop
  101f1a:	90                   	nop
  101f1b:	90                   	nop
  101f1c:	90                   	nop
  101f1d:	90                   	nop
  101f1e:	90                   	nop
  101f1f:	90                   	nop
  101f20:	90                   	nop
  101f21:	90                   	nop
  101f22:	90                   	nop
  101f23:	90                   	nop
  101f24:	90                   	nop
  101f25:	90                   	nop
  101f26:	90                   	nop
  101f27:	90                   	nop
  101f28:	90                   	nop
  101f29:	90                   	nop
  101f2a:	90                   	nop
  101f2b:	90                   	nop
  101f2c:	90                   	nop
  101f2d:	90                   	nop
  101f2e:	90                   	nop
  101f2f:	90                   	nop
  101f30:	90                   	nop
  101f31:	90                   	nop
  101f32:	90                   	nop
  101f33:	90                   	nop
  101f34:	90                   	nop
  101f35:	90                   	nop
  101f36:	90                   	nop
  101f37:	90                   	nop
  101f38:	90                   	nop
  101f39:	90                   	nop
  101f3a:	90                   	nop
  101f3b:	90                   	nop
  101f3c:	90                   	nop
  101f3d:	90                   	nop
  101f3e:	90                   	nop
  101f3f:	90                   	nop
  101f40:	90                   	nop
  101f41:	90                   	nop
  101f42:	90                   	nop
  101f43:	90                   	nop
  101f44:	90                   	nop
  101f45:	90                   	nop
  101f46:	90                   	nop
  101f47:	90                   	nop
  101f48:	90                   	nop
  101f49:	90                   	nop
  101f4a:	90                   	nop
  101f4b:	90                   	nop
  101f4c:	90                   	nop
  101f4d:	90                   	nop
  101f4e:	90                   	nop
  101f4f:	90                   	nop
  101f50:	90                   	nop
  101f51:	90                   	nop
  101f52:	90                   	nop
  101f53:	90                   	nop
  101f54:	90                   	nop
  101f55:	90                   	nop
  101f56:	90                   	nop
  101f57:	90                   	nop
  101f58:	90                   	nop
  101f59:	90                   	nop
  101f5a:	90                   	nop
  101f5b:	90                   	nop
  101f5c:	90                   	nop
  101f5d:	90                   	nop
  101f5e:	90                   	nop
  101f5f:	90                   	nop
  101f60:	90                   	nop
  101f61:	90                   	nop
  101f62:	90                   	nop
  101f63:	90                   	nop
  101f64:	90                   	nop
  101f65:	90                   	nop
  101f66:	90                   	nop
  101f67:	90                   	nop
  101f68:	90                   	nop
  101f69:	90                   	nop
  101f6a:	90                   	nop
  101f6b:	90                   	nop
  101f6c:	90                   	nop
  101f6d:	90                   	nop
  101f6e:	90                   	nop
  101f6f:	90                   	nop
  101f70:	90                   	nop
  101f71:	90                   	nop
  101f72:	90                   	nop
  101f73:	90                   	nop
  101f74:	90                   	nop
  101f75:	90                   	nop
  101f76:	90                   	nop
  101f77:	90                   	nop
  101f78:	90                   	nop
  101f79:	90                   	nop
  101f7a:	90                   	nop
  101f7b:	90                   	nop
  101f7c:	90                   	nop
  101f7d:	90                   	nop
  101f7e:	90                   	nop
  101f7f:	90                   	nop
  101f80:	90                   	nop
  101f81:	90                   	nop
  101f82:	90                   	nop
  101f83:	90                   	nop
  101f84:	90                   	nop
  101f85:	90                   	nop
  101f86:	90                   	nop
  101f87:	90                   	nop
  101f88:	90                   	nop
  101f89:	90                   	nop
  101f8a:	90                   	nop
  101f8b:	90                   	nop
  101f8c:	90                   	nop
  101f8d:	90                   	nop
  101f8e:	90                   	nop
  101f8f:	90                   	nop
  101f90:	90                   	nop
  101f91:	90                   	nop
  101f92:	90                   	nop
  101f93:	90                   	nop
  101f94:	90                   	nop
  101f95:	90                   	nop
  101f96:	90                   	nop
  101f97:	90                   	nop
  101f98:	90                   	nop
  101f99:	90                   	nop
  101f9a:	90                   	nop
  101f9b:	90                   	nop
  101f9c:	90                   	nop
  101f9d:	90                   	nop
  101f9e:	90                   	nop
  101f9f:	90                   	nop
  101fa0:	90                   	nop
  101fa1:	90                   	nop
  101fa2:	90                   	nop
  101fa3:	90                   	nop
  101fa4:	90                   	nop
  101fa5:	90                   	nop
  101fa6:	90                   	nop
  101fa7:	90                   	nop
  101fa8:	90                   	nop
  101fa9:	90                   	nop
  101faa:	90                   	nop
  101fab:	90                   	nop
  101fac:	90                   	nop
  101fad:	90                   	nop
  101fae:	90                   	nop
  101faf:	90                   	nop
  101fb0:	90                   	nop
  101fb1:	90                   	nop
  101fb2:	90                   	nop
  101fb3:	90                   	nop
  101fb4:	90                   	nop
  101fb5:	90                   	nop
  101fb6:	90                   	nop
  101fb7:	90                   	nop
  101fb8:	90                   	nop
  101fb9:	90                   	nop
  101fba:	90                   	nop
  101fbb:	90                   	nop
  101fbc:	90                   	nop
  101fbd:	90                   	nop
  101fbe:	90                   	nop
  101fbf:	90                   	nop
  101fc0:	90                   	nop
  101fc1:	90                   	nop
  101fc2:	90                   	nop
  101fc3:	90                   	nop
  101fc4:	90                   	nop
  101fc5:	90                   	nop
  101fc6:	90                   	nop
  101fc7:	90                   	nop
  101fc8:	90                   	nop
  101fc9:	90                   	nop
  101fca:	90                   	nop
  101fcb:	90                   	nop
  101fcc:	90                   	nop
  101fcd:	90                   	nop
  101fce:	90                   	nop
  101fcf:	90                   	nop
  101fd0:	90                   	nop
  101fd1:	90                   	nop
  101fd2:	90                   	nop
  101fd3:	90                   	nop
  101fd4:	90                   	nop
  101fd5:	90                   	nop
  101fd6:	90                   	nop
  101fd7:	90                   	nop
  101fd8:	90                   	nop
  101fd9:	90                   	nop
  101fda:	90                   	nop
  101fdb:	90                   	nop
  101fdc:	90                   	nop
  101fdd:	90                   	nop
  101fde:	90                   	nop
  101fdf:	90                   	nop
  101fe0:	90                   	nop
  101fe1:	90                   	nop
  101fe2:	90                   	nop
  101fe3:	90                   	nop
  101fe4:	90                   	nop
  101fe5:	90                   	nop
  101fe6:	90                   	nop
  101fe7:	90                   	nop
  101fe8:	90                   	nop
  101fe9:	90                   	nop
  101fea:	90                   	nop
  101feb:	90                   	nop
  101fec:	90                   	nop
  101fed:	90                   	nop
  101fee:	90                   	nop
  101fef:	90                   	nop
  101ff0:	90                   	nop
  101ff1:	90                   	nop
  101ff2:	90                   	nop
  101ff3:	90                   	nop
  101ff4:	90                   	nop
  101ff5:	90                   	nop
  101ff6:	90                   	nop
  101ff7:	90                   	nop
  101ff8:	90                   	nop
  101ff9:	90                   	nop
  101ffa:	90                   	nop
  101ffb:	90                   	nop
  101ffc:	90                   	nop
  101ffd:	90                   	nop
  101ffe:	90                   	nop
  101fff:	90                   	nop

00102000 <page_dir>:
	...

00103000 <page_table_low>:
	...

00104000 <page_table_high>:
	...

00105000 <page_table_vga>:
	...

00106000 <_start>:
  106000:	fa                   	cli
  106001:	a3 00 10 10 00       	mov    ds:0x101000,eax
  106006:	89 1d 04 10 10 00    	mov    DWORD PTR ds:0x101004,ebx
  10600c:	e8 29 00 00 00       	call   10603a <setup_paging>
  106011:	b8 00 20 10 00       	mov    eax,0x102000
  106016:	0f 22 d8             	mov    cr3,eax
  106019:	0f 20 e0             	mov    eax,cr4
  10601c:	83 e0 ef             	and    eax,0xffffffef
  10601f:	0f 22 e0             	mov    cr4,eax
  106022:	0f 20 c0             	mov    eax,cr0
  106025:	0d 00 00 00 80       	or     eax,0x80000000
  10602a:	0f 22 c0             	mov    cr0,eax
  10602d:	bc 00 a0 00 c0       	mov    esp,0xc000a000
  106032:	e9 c9 9f ef bf       	jmp    c0000000 <kernel_main>

00106037 <_start.hang>:
  106037:	f4                   	hlt
  106038:	eb fd                	jmp    106037 <_start.hang>

0010603a <setup_paging>:
  10603a:	bf 00 20 10 00       	mov    edi,0x102000
  10603f:	b9 00 04 00 00       	mov    ecx,0x400
  106044:	31 c0                	xor    eax,eax
  106046:	f3 ab                	rep stos DWORD PTR es:[edi],eax
  106048:	bf 00 30 10 00       	mov    edi,0x103000
  10604d:	b9 00 04 00 00       	mov    ecx,0x400
  106052:	31 f6                	xor    esi,esi

00106054 <setup_paging.fill_table_low>:
  106054:	89 f0                	mov    eax,esi
  106056:	83 c8 03             	or     eax,0x3
  106059:	89 07                	mov    DWORD PTR [edi],eax
  10605b:	81 c6 00 10 00 00    	add    esi,0x1000
  106061:	83 c7 04             	add    edi,0x4
  106064:	e2 ee                	loop   106054 <setup_paging.fill_table_low>
  106066:	bf 00 40 10 00       	mov    edi,0x104000
  10606b:	b9 00 04 00 00       	mov    ecx,0x400
  106070:	be 00 00 11 00       	mov    esi,0x110000

00106075 <setup_paging.fill_table_high>:
  106075:	89 f0                	mov    eax,esi
  106077:	83 c8 03             	or     eax,0x3
  10607a:	89 07                	mov    DWORD PTR [edi],eax
  10607c:	81 c6 00 10 00 00    	add    esi,0x1000
  106082:	83 c7 04             	add    edi,0x4
  106085:	e2 ee                	loop   106075 <setup_paging.fill_table_high>
  106087:	b8 00 30 10 00       	mov    eax,0x103000
  10608c:	83 c8 03             	or     eax,0x3
  10608f:	a3 00 20 10 00       	mov    ds:0x102000,eax
  106094:	b8 00 40 10 00       	mov    eax,0x104000
  106099:	83 c8 03             	or     eax,0x3
  10609c:	bf 00 20 10 00       	mov    edi,0x102000
  1060a1:	81 c7 00 0c 00 00    	add    edi,0xc00
  1060a7:	89 07                	mov    DWORD PTR [edi],eax
  1060a9:	b8 03 80 0b 00       	mov    eax,0xb8003
  1060ae:	bf 00 40 10 00       	mov    edi,0x104000
  1060b3:	81 c7 e0 0e 00 00    	add    edi,0xee0
  1060b9:	89 07                	mov    DWORD PTR [edi],eax
  1060bb:	b8 00 20 10 00       	mov    eax,0x102000
  1060c0:	83 c8 03             	or     eax,0x3
  1060c3:	bf 00 20 10 00       	mov    edi,0x102000
  1060c8:	81 c7 fc 0f 00 00    	add    edi,0xffc
  1060ce:	89 07                	mov    DWORD PTR [edi],eax
  1060d0:	c3                   	ret

Disassembly of section .text:

c0000000 <kernel_main>:
c0000000:	55                   	push   ebp
c0000001:	89 e5                	mov    ebp,esp
c0000003:	83 ec 18             	sub    esp,0x18
c0000006:	e8 c9 08 00 00       	call   c00008d4 <init_serial>
c000000b:	e8 fd 18 00 00       	call   c000190d <gdt_install>
c0000010:	b8 00 a0 00 c0       	mov    eax,0xc000a000
c0000015:	83 ec 04             	sub    esp,0x4
c0000018:	50                   	push   eax
c0000019:	6a 10                	push   0x10
c000001b:	6a 05                	push   0x5
c000001d:	e8 84 1b 00 00       	call   c0001ba6 <tss_install>
c0000022:	83 c4 10             	add    esp,0x10
c0000025:	e8 a6 1c 00 00       	call   c0001cd0 <idt_install>
c000002a:	e8 49 1d 00 00       	call   c0001d78 <pic_remap>
c000002f:	e8 43 1f 00 00       	call   c0001f77 <handlers_install>
c0000034:	a1 04 10 10 00       	mov    eax,ds:0x101004
c0000039:	83 ec 0c             	sub    esp,0xc
c000003c:	50                   	push   eax
c000003d:	e8 01 0b 00 00       	call   c0000b43 <parse_memory_map>
c0000042:	83 c4 10             	add    esp,0x10
c0000045:	e8 b9 06 00 00       	call   c0000703 <paging_init>
c000004a:	e8 44 23 00 00       	call   c0002393 <vmm_init>
c000004f:	83 ec 04             	sub    esp,0x4
c0000052:	6a 08                	push   0x8
c0000054:	6a 00                	push   0x0
c0000056:	8d 45 f0             	lea    eax,[ebp-0x10]
c0000059:	50                   	push   eax
c000005a:	e8 38 0c 00 00       	call   c0000c97 <memsets>
c000005f:	83 c4 10             	add    esp,0x10
c0000062:	83 ec 0c             	sub    esp,0xc
c0000065:	68 00 30 00 c0       	push   0xc0003000
c000006a:	e8 f7 08 00 00       	call   c0000966 <write_serial_string>
c000006f:	83 c4 10             	add    esp,0x10
c0000072:	83 ec 0c             	sub    esp,0xc
c0000075:	8d 45 f0             	lea    eax,[ebp-0x10]
c0000078:	50                   	push   eax
c0000079:	e8 25 2b 00 00       	call   c0002ba3 <vmm_load_usermode>
c000007e:	83 c4 10             	add    esp,0x10
c0000081:	fb                   	sti
c0000082:	f4                   	hlt
c0000083:	eb fd                	jmp    c0000082 <kernel_main+0x82>

c0000085 <flush_tlb_single>:
c0000085:	55                   	push   ebp
c0000086:	89 e5                	mov    ebp,esp
c0000088:	53                   	push   ebx
c0000089:	83 ec 04             	sub    esp,0x4
c000008c:	e8 de 07 00 00       	call   c000086f <__x86.get_pc_thunk.bx>
c0000091:	81 c3 7b 4f 00 00    	add    ebx,0x4f7b
c0000097:	83 ec 0c             	sub    esp,0xc
c000009a:	8d 83 14 e0 ff ff    	lea    eax,[ebx-0x1fec]
c00000a0:	50                   	push   eax
c00000a1:	e8 c0 08 00 00       	call   c0000966 <write_serial_string>
c00000a6:	83 c4 10             	add    esp,0x10
c00000a9:	83 ec 0c             	sub    esp,0xc
c00000ac:	ff 75 08             	push   DWORD PTR [ebp+0x8]
c00000af:	e8 aa 09 00 00       	call   c0000a5e <serial_write_hex32>
c00000b4:	83 c4 10             	add    esp,0x10
c00000b7:	83 ec 0c             	sub    esp,0xc
c00000ba:	8d 83 41 e0 ff ff    	lea    eax,[ebx-0x1fbf]
c00000c0:	50                   	push   eax
c00000c1:	e8 a0 08 00 00       	call   c0000966 <write_serial_string>
c00000c6:	83 c4 10             	add    esp,0x10
c00000c9:	8b 45 08             	mov    eax,DWORD PTR [ebp+0x8]
c00000cc:	0f 01 38             	invlpg BYTE PTR [eax]
c00000cf:	90                   	nop
c00000d0:	8b 5d fc             	mov    ebx,DWORD PTR [ebp-0x4]
c00000d3:	c9                   	leave
c00000d4:	c3                   	ret

c00000d5 <flush_tlb>:
c00000d5:	55                   	push   ebp
c00000d6:	89 e5                	mov    ebp,esp
c00000d8:	e8 8e 07 00 00       	call   c000086b <__x86.get_pc_thunk.ax>
c00000dd:	05 2f 4f 00 00       	add    eax,0x4f2f
c00000e2:	0f 20 d8             	mov    eax,cr3
c00000e5:	0f 22 d8             	mov    cr3,eax
c00000e8:	90                   	nop
c00000e9:	5d                   	pop    ebp
c00000ea:	c3                   	ret

c00000eb <virt_to_phys_func>:
c00000eb:	55                   	push   ebp
c00000ec:	89 e5                	mov    ebp,esp
c00000ee:	83 ec 30             	sub    esp,0x30
c00000f1:	e8 75 07 00 00       	call   c000086b <__x86.get_pc_thunk.ax>
c00000f6:	05 16 4f 00 00       	add    eax,0x4f16
c00000fb:	8b 45 08             	mov    eax,DWORD PTR [ebp+0x8]
c00000fe:	89 45 fc             	mov    DWORD PTR [ebp-0x4],eax
c0000101:	8b 45 fc             	mov    eax,DWORD PTR [ebp-0x4]
c0000104:	c1 e8 16             	shr    eax,0x16
c0000107:	89 45 f8             	mov    DWORD PTR [ebp-0x8],eax
c000010a:	8b 45 fc             	mov    eax,DWORD PTR [ebp-0x4]
c000010d:	c1 e8 0c             	shr    eax,0xc
c0000110:	25 ff 03 00 00       	and    eax,0x3ff
c0000115:	89 45 f4             	mov    DWORD PTR [ebp-0xc],eax
c0000118:	8b 45 fc             	mov    eax,DWORD PTR [ebp-0x4]
c000011b:	25 ff 0f 00 00       	and    eax,0xfff
c0000120:	89 45 f0             	mov    DWORD PTR [ebp-0x10],eax
c0000123:	c7 45 ec 00 f0 ff ff 	mov    DWORD PTR [ebp-0x14],0xfffff000
c000012a:	8b 45 f8             	mov    eax,DWORD PTR [ebp-0x8]
c000012d:	05 00 fc 0f 00       	add    eax,0xffc00
c0000132:	c1 e0 0c             	shl    eax,0xc
c0000135:	89 45 e8             	mov    DWORD PTR [ebp-0x18],eax
c0000138:	8b 45 f8             	mov    eax,DWORD PTR [ebp-0x8]
c000013b:	8d 14 85 00 00 00 00 	lea    edx,[eax*4+0x0]
c0000142:	8b 45 ec             	mov    eax,DWORD PTR [ebp-0x14]
c0000145:	01 d0                	add    eax,edx
c0000147:	8b 00                	mov    eax,DWORD PTR [eax]
c0000149:	89 45 e4             	mov    DWORD PTR [ebp-0x1c],eax
c000014c:	8b 45 e4             	mov    eax,DWORD PTR [ebp-0x1c]
c000014f:	83 e0 01             	and    eax,0x1
c0000152:	85 c0                	test   eax,eax
c0000154:	75 07                	jne    c000015d <virt_to_phys_func+0x72>
c0000156:	b8 00 00 00 00       	mov    eax,0x0
c000015b:	eb 38                	jmp    c0000195 <virt_to_phys_func+0xaa>
c000015d:	8b 45 f4             	mov    eax,DWORD PTR [ebp-0xc]
c0000160:	8d 14 85 00 00 00 00 	lea    edx,[eax*4+0x0]
c0000167:	8b 45 e8             	mov    eax,DWORD PTR [ebp-0x18]
c000016a:	01 d0                	add    eax,edx
c000016c:	8b 00                	mov    eax,DWORD PTR [eax]
c000016e:	89 45 e0             	mov    DWORD PTR [ebp-0x20],eax
c0000171:	8b 45 e0             	mov    eax,DWORD PTR [ebp-0x20]
c0000174:	83 e0 01             	and    eax,0x1
c0000177:	85 c0                	test   eax,eax
c0000179:	75 07                	jne    c0000182 <virt_to_phys_func+0x97>
c000017b:	b8 00 00 00 00       	mov    eax,0x0
c0000180:	eb 13                	jmp    c0000195 <virt_to_phys_func+0xaa>
c0000182:	8b 45 e0             	mov    eax,DWORD PTR [ebp-0x20]
c0000185:	25 00 f0 ff ff       	and    eax,0xfffff000
c000018a:	89 45 dc             	mov    DWORD PTR [ebp-0x24],eax
c000018d:	8b 55 dc             	mov    edx,DWORD PTR [ebp-0x24]
c0000190:	8b 45 f0             	mov    eax,DWORD PTR [ebp-0x10]
c0000193:	01 d0                	add    eax,edx
c0000195:	c9                   	leave
c0000196:	c3                   	ret

c0000197 <get_page_table_virt>:
c0000197:	55                   	push   ebp
c0000198:	89 e5                	mov    ebp,esp
c000019a:	e8 cc 06 00 00       	call   c000086b <__x86.get_pc_thunk.ax>
c000019f:	05 6d 4e 00 00       	add    eax,0x4e6d
c00001a4:	8b 45 08             	mov    eax,DWORD PTR [ebp+0x8]
c00001a7:	05 00 fc 0f 00       	add    eax,0xffc00
c00001ac:	c1 e0 0c             	shl    eax,0xc
c00001af:	5d                   	pop    ebp
c00001b0:	c3                   	ret

c00001b1 <paging_map_page>:
c00001b1:	55                   	push   ebp
c00001b2:	89 e5                	mov    ebp,esp
c00001b4:	53                   	push   ebx
c00001b5:	83 ec 24             	sub    esp,0x24
c00001b8:	e8 b2 06 00 00       	call   c000086f <__x86.get_pc_thunk.bx>
c00001bd:	81 c3 4f 4e 00 00    	add    ebx,0x4e4f
c00001c3:	83 ec 0c             	sub    esp,0xc
c00001c6:	8d 83 44 e0 ff ff    	lea    eax,[ebx-0x1fbc]
c00001cc:	50                   	push   eax
c00001cd:	e8 94 07 00 00       	call   c0000966 <write_serial_string>
c00001d2:	83 c4 10             	add    esp,0x10
c00001d5:	83 ec 0c             	sub    esp,0xc
c00001d8:	ff 75 08             	push   DWORD PTR [ebp+0x8]
c00001db:	e8 7e 08 00 00       	call   c0000a5e <serial_write_hex32>
c00001e0:	83 c4 10             	add    esp,0x10
c00001e3:	83 ec 0c             	sub    esp,0xc
c00001e6:	8d 83 6a e0 ff ff    	lea    eax,[ebx-0x1f96]
c00001ec:	50                   	push   eax
c00001ed:	e8 74 07 00 00       	call   c0000966 <write_serial_string>
c00001f2:	83 c4 10             	add    esp,0x10
c00001f5:	83 ec 0c             	sub    esp,0xc
c00001f8:	ff 75 0c             	push   DWORD PTR [ebp+0xc]
c00001fb:	e8 5e 08 00 00       	call   c0000a5e <serial_write_hex32>
c0000200:	83 c4 10             	add    esp,0x10
c0000203:	83 ec 0c             	sub    esp,0xc
c0000206:	8d 83 74 e0 ff ff    	lea    eax,[ebx-0x1f8c]
c000020c:	50                   	push   eax
c000020d:	e8 54 07 00 00       	call   c0000966 <write_serial_string>
c0000212:	83 c4 10             	add    esp,0x10
c0000215:	83 ec 0c             	sub    esp,0xc
c0000218:	ff 75 10             	push   DWORD PTR [ebp+0x10]
c000021b:	e8 3e 08 00 00       	call   c0000a5e <serial_write_hex32>
c0000220:	83 c4 10             	add    esp,0x10
c0000223:	83 ec 0c             	sub    esp,0xc
c0000226:	8d 83 41 e0 ff ff    	lea    eax,[ebx-0x1fbf]
c000022c:	50                   	push   eax
c000022d:	e8 34 07 00 00       	call   c0000966 <write_serial_string>
c0000232:	83 c4 10             	add    esp,0x10
c0000235:	8b 45 08             	mov    eax,DWORD PTR [ebp+0x8]
c0000238:	c1 e8 16             	shr    eax,0x16
c000023b:	89 45 f0             	mov    DWORD PTR [ebp-0x10],eax
c000023e:	8b 45 08             	mov    eax,DWORD PTR [ebp+0x8]
c0000241:	c1 e8 0c             	shr    eax,0xc
c0000244:	25 ff 03 00 00       	and    eax,0x3ff
c0000249:	89 45 ec             	mov    DWORD PTR [ebp-0x14],eax
c000024c:	83 ec 0c             	sub    esp,0xc
c000024f:	8d 83 80 e0 ff ff    	lea    eax,[ebx-0x1f80]
c0000255:	50                   	push   eax
c0000256:	e8 0b 07 00 00       	call   c0000966 <write_serial_string>
c000025b:	83 c4 10             	add    esp,0x10
c000025e:	83 ec 0c             	sub    esp,0xc
c0000261:	ff 75 f0             	push   DWORD PTR [ebp-0x10]
c0000264:	e8 f5 07 00 00       	call   c0000a5e <serial_write_hex32>
c0000269:	83 c4 10             	add    esp,0x10
c000026c:	83 ec 0c             	sub    esp,0xc
c000026f:	8d 83 a9 e0 ff ff    	lea    eax,[ebx-0x1f57]
c0000275:	50                   	push   eax
c0000276:	e8 eb 06 00 00       	call   c0000966 <write_serial_string>
c000027b:	83 c4 10             	add    esp,0x10
c000027e:	83 ec 0c             	sub    esp,0xc
c0000281:	ff 75 ec             	push   DWORD PTR [ebp-0x14]
c0000284:	e8 d5 07 00 00       	call   c0000a5e <serial_write_hex32>
c0000289:	83 c4 10             	add    esp,0x10
c000028c:	83 ec 0c             	sub    esp,0xc
c000028f:	8d 83 41 e0 ff ff    	lea    eax,[ebx-0x1fbf]
c0000295:	50                   	push   eax
c0000296:	e8 cb 06 00 00       	call   c0000966 <write_serial_string>
c000029b:	83 c4 10             	add    esp,0x10
c000029e:	8b 45 f0             	mov    eax,DWORD PTR [ebp-0x10]
c00002a1:	c1 e0 02             	shl    eax,0x2
c00002a4:	2d 00 10 00 00       	sub    eax,0x1000
c00002a9:	8b 00                	mov    eax,DWORD PTR [eax]
c00002ab:	89 45 e8             	mov    DWORD PTR [ebp-0x18],eax
c00002ae:	83 ec 0c             	sub    esp,0xc
c00002b1:	8d 83 b8 e0 ff ff    	lea    eax,[ebx-0x1f48]
c00002b7:	50                   	push   eax
c00002b8:	e8 a9 06 00 00       	call   c0000966 <write_serial_string>
c00002bd:	83 c4 10             	add    esp,0x10
c00002c0:	83 ec 0c             	sub    esp,0xc
c00002c3:	ff 75 e8             	push   DWORD PTR [ebp-0x18]
c00002c6:	e8 93 07 00 00       	call   c0000a5e <serial_write_hex32>
c00002cb:	83 c4 10             	add    esp,0x10
c00002ce:	83 ec 0c             	sub    esp,0xc
c00002d1:	8d 83 41 e0 ff ff    	lea    eax,[ebx-0x1fbf]
c00002d7:	50                   	push   eax
c00002d8:	e8 89 06 00 00       	call   c0000966 <write_serial_string>
c00002dd:	83 c4 10             	add    esp,0x10
c00002e0:	8b 45 e8             	mov    eax,DWORD PTR [ebp-0x18]
c00002e3:	83 e0 01             	and    eax,0x1
c00002e6:	85 c0                	test   eax,eax
c00002e8:	0f 85 24 01 00 00    	jne    c0000412 <paging_map_page+0x261>
c00002ee:	83 ec 0c             	sub    esp,0xc
c00002f1:	8d 83 d8 e0 ff ff    	lea    eax,[ebx-0x1f28]
c00002f7:	50                   	push   eax
c00002f8:	e8 69 06 00 00       	call   c0000966 <write_serial_string>
c00002fd:	83 c4 10             	add    esp,0x10
c0000300:	e8 32 11 00 00       	call   c0001437 <pmm_alloc_page>
c0000305:	89 45 e4             	mov    DWORD PTR [ebp-0x1c],eax
c0000308:	83 7d e4 00          	cmp    DWORD PTR [ebp-0x1c],0x0
c000030c:	75 12                	jne    c0000320 <paging_map_page+0x16f>
c000030e:	83 ec 0c             	sub    esp,0xc
c0000311:	8d 83 18 e1 ff ff    	lea    eax,[ebx-0x1ee8]
c0000317:	50                   	push   eax
c0000318:	e8 7b 0a 00 00       	call   c0000d98 <panic>
c000031d:	83 c4 10             	add    esp,0x10
c0000320:	c7 45 f4 03 00 00 00 	mov    DWORD PTR [ebp-0xc],0x3
c0000327:	8b 45 10             	mov    eax,DWORD PTR [ebp+0x10]
c000032a:	83 e0 04             	and    eax,0x4
c000032d:	85 c0                	test   eax,eax
c000032f:	74 04                	je     c0000335 <paging_map_page+0x184>
c0000331:	83 4d f4 04          	or     DWORD PTR [ebp-0xc],0x4
c0000335:	83 ec 0c             	sub    esp,0xc
c0000338:	8d 83 48 e1 ff ff    	lea    eax,[ebx-0x1eb8]
c000033e:	50                   	push   eax
c000033f:	e8 22 06 00 00       	call   c0000966 <write_serial_string>
c0000344:	83 c4 10             	add    esp,0x10
c0000347:	83 ec 0c             	sub    esp,0xc
c000034a:	ff 75 e4             	push   DWORD PTR [ebp-0x1c]
c000034d:	e8 0c 07 00 00       	call   c0000a5e <serial_write_hex32>
c0000352:	83 c4 10             	add    esp,0x10
c0000355:	83 ec 0c             	sub    esp,0xc
c0000358:	8d 83 41 e0 ff ff    	lea    eax,[ebx-0x1fbf]
c000035e:	50                   	push   eax
c000035f:	e8 02 06 00 00       	call   c0000966 <write_serial_string>
c0000364:	83 c4 10             	add    esp,0x10
c0000367:	8b 45 f0             	mov    eax,DWORD PTR [ebp-0x10]
c000036a:	c1 e0 02             	shl    eax,0x2
c000036d:	8d 90 00 f0 ff ff    	lea    edx,[eax-0x1000]
c0000373:	8b 45 e4             	mov    eax,DWORD PTR [ebp-0x1c]
c0000376:	0b 45 f4             	or     eax,DWORD PTR [ebp-0xc]
c0000379:	89 02                	mov    DWORD PTR [edx],eax
c000037b:	e8 55 fd ff ff       	call   c00000d5 <flush_tlb>
c0000380:	83 ec 0c             	sub    esp,0xc
c0000383:	ff 75 f0             	push   DWORD PTR [ebp-0x10]
c0000386:	e8 0c fe ff ff       	call   c0000197 <get_page_table_virt>
c000038b:	83 c4 10             	add    esp,0x10
c000038e:	89 45 e0             	mov    DWORD PTR [ebp-0x20],eax
c0000391:	83 ec 04             	sub    esp,0x4
c0000394:	68 00 10 00 00       	push   0x1000
c0000399:	6a 00                	push   0x0
c000039b:	ff 75 e0             	push   DWORD PTR [ebp-0x20]
c000039e:	e8 f4 08 00 00       	call   c0000c97 <memsets>
c00003a3:	83 c4 10             	add    esp,0x10
c00003a6:	8b 45 e0             	mov    eax,DWORD PTR [ebp-0x20]
c00003a9:	83 ec 0c             	sub    esp,0xc
c00003ac:	50                   	push   eax
c00003ad:	e8 ac 06 00 00       	call   c0000a5e <serial_write_hex32>
c00003b2:	83 c4 10             	add    esp,0x10
c00003b5:	83 ec 0c             	sub    esp,0xc
c00003b8:	8d 83 70 e1 ff ff    	lea    eax,[ebx-0x1e90]
c00003be:	50                   	push   eax
c00003bf:	e8 a2 05 00 00       	call   c0000966 <write_serial_string>
c00003c4:	83 c4 10             	add    esp,0x10
c00003c7:	83 ec 0c             	sub    esp,0xc
c00003ca:	ff 75 f0             	push   DWORD PTR [ebp-0x10]
c00003cd:	e8 8c 06 00 00       	call   c0000a5e <serial_write_hex32>
c00003d2:	83 c4 10             	add    esp,0x10
c00003d5:	83 ec 0c             	sub    esp,0xc
c00003d8:	8d 83 98 e1 ff ff    	lea    eax,[ebx-0x1e68]
c00003de:	50                   	push   eax
c00003df:	e8 82 05 00 00       	call   c0000966 <write_serial_string>
c00003e4:	83 c4 10             	add    esp,0x10
c00003e7:	8b 45 f0             	mov    eax,DWORD PTR [ebp-0x10]
c00003ea:	c1 e0 02             	shl    eax,0x2
c00003ed:	2d 00 10 00 00       	sub    eax,0x1000
c00003f2:	8b 00                	mov    eax,DWORD PTR [eax]
c00003f4:	83 ec 0c             	sub    esp,0xc
c00003f7:	50                   	push   eax
c00003f8:	e8 61 06 00 00       	call   c0000a5e <serial_write_hex32>
c00003fd:	83 c4 10             	add    esp,0x10
c0000400:	83 ec 0c             	sub    esp,0xc
c0000403:	8d 83 41 e0 ff ff    	lea    eax,[ebx-0x1fbf]
c0000409:	50                   	push   eax
c000040a:	e8 57 05 00 00       	call   c0000966 <write_serial_string>
c000040f:	83 c4 10             	add    esp,0x10
c0000412:	83 ec 0c             	sub    esp,0xc
c0000415:	ff 75 f0             	push   DWORD PTR [ebp-0x10]
c0000418:	e8 7a fd ff ff       	call   c0000197 <get_page_table_virt>
c000041d:	83 c4 10             	add    esp,0x10
c0000420:	89 45 dc             	mov    DWORD PTR [ebp-0x24],eax
c0000423:	83 ec 0c             	sub    esp,0xc
c0000426:	8d 83 a0 e1 ff ff    	lea    eax,[ebx-0x1e60]
c000042c:	50                   	push   eax
c000042d:	e8 34 05 00 00       	call   c0000966 <write_serial_string>
c0000432:	83 c4 10             	add    esp,0x10
c0000435:	8b 45 dc             	mov    eax,DWORD PTR [ebp-0x24]
c0000438:	83 ec 0c             	sub    esp,0xc
c000043b:	50                   	push   eax
c000043c:	e8 1d 06 00 00       	call   c0000a5e <serial_write_hex32>
c0000441:	83 c4 10             	add    esp,0x10
c0000444:	83 ec 0c             	sub    esp,0xc
c0000447:	8d 83 41 e0 ff ff    	lea    eax,[ebx-0x1fbf]
c000044d:	50                   	push   eax
c000044e:	e8 13 05 00 00       	call   c0000966 <write_serial_string>
c0000453:	83 c4 10             	add    esp,0x10
c0000456:	83 ec 0c             	sub    esp,0xc
c0000459:	8d 83 cc e1 ff ff    	lea    eax,[ebx-0x1e34]
c000045f:	50                   	push   eax
c0000460:	e8 01 05 00 00       	call   c0000966 <write_serial_string>
c0000465:	83 c4 10             	add    esp,0x10
c0000468:	83 ec 0c             	sub    esp,0xc
c000046b:	ff 75 ec             	push   DWORD PTR [ebp-0x14]
c000046e:	e8 eb 05 00 00       	call   c0000a5e <serial_write_hex32>
c0000473:	83 c4 10             	add    esp,0x10
c0000476:	83 ec 0c             	sub    esp,0xc
c0000479:	8d 83 f4 e1 ff ff    	lea    eax,[ebx-0x1e0c]
c000047f:	50                   	push   eax
c0000480:	e8 e1 04 00 00       	call   c0000966 <write_serial_string>
c0000485:	83 c4 10             	add    esp,0x10
c0000488:	8b 45 0c             	mov    eax,DWORD PTR [ebp+0xc]
c000048b:	25 00 f0 ff ff       	and    eax,0xfffff000
c0000490:	83 ec 0c             	sub    esp,0xc
c0000493:	50                   	push   eax
c0000494:	e8 c5 05 00 00       	call   c0000a5e <serial_write_hex32>
c0000499:	83 c4 10             	add    esp,0x10
c000049c:	83 ec 0c             	sub    esp,0xc
c000049f:	8d 83 05 e2 ff ff    	lea    eax,[ebx-0x1dfb]
c00004a5:	50                   	push   eax
c00004a6:	e8 bb 04 00 00       	call   c0000966 <write_serial_string>
c00004ab:	83 c4 10             	add    esp,0x10
c00004ae:	8b 45 10             	mov    eax,DWORD PTR [ebp+0x10]
c00004b1:	25 ff 0f 00 00       	and    eax,0xfff
c00004b6:	83 ec 0c             	sub    esp,0xc
c00004b9:	50                   	push   eax
c00004ba:	e8 9f 05 00 00       	call   c0000a5e <serial_write_hex32>
c00004bf:	83 c4 10             	add    esp,0x10
c00004c2:	83 ec 0c             	sub    esp,0xc
c00004c5:	8d 83 41 e0 ff ff    	lea    eax,[ebx-0x1fbf]
c00004cb:	50                   	push   eax
c00004cc:	e8 95 04 00 00       	call   c0000966 <write_serial_string>
c00004d1:	83 c4 10             	add    esp,0x10
c00004d4:	8b 45 0c             	mov    eax,DWORD PTR [ebp+0xc]
c00004d7:	25 00 f0 ff ff       	and    eax,0xfffff000
c00004dc:	89 c2                	mov    edx,eax
c00004de:	8b 45 10             	mov    eax,DWORD PTR [ebp+0x10]
c00004e1:	25 ff 0f 00 00       	and    eax,0xfff
c00004e6:	09 c2                	or     edx,eax
c00004e8:	8b 45 ec             	mov    eax,DWORD PTR [ebp-0x14]
c00004eb:	8d 0c 85 00 00 00 00 	lea    ecx,[eax*4+0x0]
c00004f2:	8b 45 dc             	mov    eax,DWORD PTR [ebp-0x24]
c00004f5:	01 c8                	add    eax,ecx
c00004f7:	83 ca 01             	or     edx,0x1
c00004fa:	89 10                	mov    DWORD PTR [eax],edx
c00004fc:	83 ec 0c             	sub    esp,0xc
c00004ff:	ff 75 08             	push   DWORD PTR [ebp+0x8]
c0000502:	e8 7e fb ff ff       	call   c0000085 <flush_tlb_single>
c0000507:	83 c4 10             	add    esp,0x10
c000050a:	90                   	nop
c000050b:	8b 5d fc             	mov    ebx,DWORD PTR [ebp-0x4]
c000050e:	c9                   	leave
c000050f:	c3                   	ret

c0000510 <paging_unmap_page>:
c0000510:	55                   	push   ebp
c0000511:	89 e5                	mov    ebp,esp
c0000513:	53                   	push   ebx
c0000514:	83 ec 24             	sub    esp,0x24
c0000517:	e8 53 03 00 00       	call   c000086f <__x86.get_pc_thunk.bx>
c000051c:	81 c3 f0 4a 00 00    	add    ebx,0x4af0
c0000522:	83 ec 0c             	sub    esp,0xc
c0000525:	8d 83 14 e2 ff ff    	lea    eax,[ebx-0x1dec]
c000052b:	50                   	push   eax
c000052c:	e8 35 04 00 00       	call   c0000966 <write_serial_string>
c0000531:	83 c4 10             	add    esp,0x10
c0000534:	83 ec 0c             	sub    esp,0xc
c0000537:	ff 75 08             	push   DWORD PTR [ebp+0x8]
c000053a:	e8 1f 05 00 00       	call   c0000a5e <serial_write_hex32>
c000053f:	83 c4 10             	add    esp,0x10
c0000542:	83 ec 0c             	sub    esp,0xc
c0000545:	8d 83 41 e0 ff ff    	lea    eax,[ebx-0x1fbf]
c000054b:	50                   	push   eax
c000054c:	e8 15 04 00 00       	call   c0000966 <write_serial_string>
c0000551:	83 c4 10             	add    esp,0x10
c0000554:	8b 45 08             	mov    eax,DWORD PTR [ebp+0x8]
c0000557:	c1 e8 16             	shr    eax,0x16
c000055a:	89 45 f4             	mov    DWORD PTR [ebp-0xc],eax
c000055d:	8b 45 08             	mov    eax,DWORD PTR [ebp+0x8]
c0000560:	c1 e8 0c             	shr    eax,0xc
c0000563:	25 ff 03 00 00       	and    eax,0x3ff
c0000568:	89 45 f0             	mov    DWORD PTR [ebp-0x10],eax
c000056b:	83 ec 0c             	sub    esp,0xc
c000056e:	8d 83 44 e2 ff ff    	lea    eax,[ebx-0x1dbc]
c0000574:	50                   	push   eax
c0000575:	e8 ec 03 00 00       	call   c0000966 <write_serial_string>
c000057a:	83 c4 10             	add    esp,0x10
c000057d:	83 ec 0c             	sub    esp,0xc
c0000580:	ff 75 f4             	push   DWORD PTR [ebp-0xc]
c0000583:	e8 d6 04 00 00       	call   c0000a5e <serial_write_hex32>
c0000588:	83 c4 10             	add    esp,0x10
c000058b:	83 ec 0c             	sub    esp,0xc
c000058e:	8d 83 a9 e0 ff ff    	lea    eax,[ebx-0x1f57]
c0000594:	50                   	push   eax
c0000595:	e8 cc 03 00 00       	call   c0000966 <write_serial_string>
c000059a:	83 c4 10             	add    esp,0x10
c000059d:	83 ec 0c             	sub    esp,0xc
c00005a0:	ff 75 f0             	push   DWORD PTR [ebp-0x10]
c00005a3:	e8 b6 04 00 00       	call   c0000a5e <serial_write_hex32>
c00005a8:	83 c4 10             	add    esp,0x10
c00005ab:	83 ec 0c             	sub    esp,0xc
c00005ae:	8d 83 41 e0 ff ff    	lea    eax,[ebx-0x1fbf]
c00005b4:	50                   	push   eax
c00005b5:	e8 ac 03 00 00       	call   c0000966 <write_serial_string>
c00005ba:	83 c4 10             	add    esp,0x10
c00005bd:	8b 45 f4             	mov    eax,DWORD PTR [ebp-0xc]
c00005c0:	c1 e0 02             	shl    eax,0x2
c00005c3:	2d 00 10 00 00       	sub    eax,0x1000
c00005c8:	8b 00                	mov    eax,DWORD PTR [eax]
c00005ca:	83 e0 01             	and    eax,0x1
c00005cd:	85 c0                	test   eax,eax
c00005cf:	75 17                	jne    c00005e8 <paging_unmap_page+0xd8>
c00005d1:	83 ec 0c             	sub    esp,0xc
c00005d4:	8d 83 64 e2 ff ff    	lea    eax,[ebx-0x1d9c]
c00005da:	50                   	push   eax
c00005db:	e8 86 03 00 00       	call   c0000966 <write_serial_string>
c00005e0:	83 c4 10             	add    esp,0x10
c00005e3:	e9 16 01 00 00       	jmp    c00006fe <paging_unmap_page+0x1ee>
c00005e8:	83 ec 0c             	sub    esp,0xc
c00005eb:	ff 75 f4             	push   DWORD PTR [ebp-0xc]
c00005ee:	e8 a4 fb ff ff       	call   c0000197 <get_page_table_virt>
c00005f3:	83 c4 10             	add    esp,0x10
c00005f6:	89 45 ec             	mov    DWORD PTR [ebp-0x14],eax
c00005f9:	83 ec 0c             	sub    esp,0xc
c00005fc:	8d 83 9c e2 ff ff    	lea    eax,[ebx-0x1d64]
c0000602:	50                   	push   eax
c0000603:	e8 5e 03 00 00       	call   c0000966 <write_serial_string>
c0000608:	83 c4 10             	add    esp,0x10
c000060b:	8b 45 ec             	mov    eax,DWORD PTR [ebp-0x14]
c000060e:	83 ec 0c             	sub    esp,0xc
c0000611:	50                   	push   eax
c0000612:	e8 47 04 00 00       	call   c0000a5e <serial_write_hex32>
c0000617:	83 c4 10             	add    esp,0x10
c000061a:	83 ec 0c             	sub    esp,0xc
c000061d:	8d 83 41 e0 ff ff    	lea    eax,[ebx-0x1fbf]
c0000623:	50                   	push   eax
c0000624:	e8 3d 03 00 00       	call   c0000966 <write_serial_string>
c0000629:	83 c4 10             	add    esp,0x10
c000062c:	8b 45 f0             	mov    eax,DWORD PTR [ebp-0x10]
c000062f:	8d 14 85 00 00 00 00 	lea    edx,[eax*4+0x0]
c0000636:	8b 45 ec             	mov    eax,DWORD PTR [ebp-0x14]
c0000639:	01 d0                	add    eax,edx
c000063b:	8b 00                	mov    eax,DWORD PTR [eax]
c000063d:	89 45 e8             	mov    DWORD PTR [ebp-0x18],eax
c0000640:	83 ec 0c             	sub    esp,0xc
c0000643:	8d 83 c8 e2 ff ff    	lea    eax,[ebx-0x1d38]
c0000649:	50                   	push   eax
c000064a:	e8 17 03 00 00       	call   c0000966 <write_serial_string>
c000064f:	83 c4 10             	add    esp,0x10
c0000652:	83 ec 0c             	sub    esp,0xc
c0000655:	ff 75 e8             	push   DWORD PTR [ebp-0x18]
c0000658:	e8 01 04 00 00       	call   c0000a5e <serial_write_hex32>
c000065d:	83 c4 10             	add    esp,0x10
c0000660:	83 ec 0c             	sub    esp,0xc
c0000663:	8d 83 41 e0 ff ff    	lea    eax,[ebx-0x1fbf]
c0000669:	50                   	push   eax
c000066a:	e8 f7 02 00 00       	call   c0000966 <write_serial_string>
c000066f:	83 c4 10             	add    esp,0x10
c0000672:	8b 45 e8             	mov    eax,DWORD PTR [ebp-0x18]
c0000675:	83 e0 01             	and    eax,0x1
c0000678:	85 c0                	test   eax,eax
c000067a:	75 14                	jne    c0000690 <paging_unmap_page+0x180>
c000067c:	83 ec 0c             	sub    esp,0xc
c000067f:	8d 83 ec e2 ff ff    	lea    eax,[ebx-0x1d14]
c0000685:	50                   	push   eax
c0000686:	e8 db 02 00 00       	call   c0000966 <write_serial_string>
c000068b:	83 c4 10             	add    esp,0x10
c000068e:	eb 6e                	jmp    c00006fe <paging_unmap_page+0x1ee>
c0000690:	8b 45 e8             	mov    eax,DWORD PTR [ebp-0x18]
c0000693:	25 00 f0 ff ff       	and    eax,0xfffff000
c0000698:	89 45 e4             	mov    DWORD PTR [ebp-0x1c],eax
c000069b:	83 ec 0c             	sub    esp,0xc
c000069e:	8d 83 24 e3 ff ff    	lea    eax,[ebx-0x1cdc]
c00006a4:	50                   	push   eax
c00006a5:	e8 bc 02 00 00       	call   c0000966 <write_serial_string>
c00006aa:	83 c4 10             	add    esp,0x10
c00006ad:	83 ec 0c             	sub    esp,0xc
c00006b0:	ff 75 e4             	push   DWORD PTR [ebp-0x1c]
c00006b3:	e8 a6 03 00 00       	call   c0000a5e <serial_write_hex32>
c00006b8:	83 c4 10             	add    esp,0x10
c00006bb:	83 ec 0c             	sub    esp,0xc
c00006be:	8d 83 41 e0 ff ff    	lea    eax,[ebx-0x1fbf]
c00006c4:	50                   	push   eax
c00006c5:	e8 9c 02 00 00       	call   c0000966 <write_serial_string>
c00006ca:	83 c4 10             	add    esp,0x10
c00006cd:	83 ec 0c             	sub    esp,0xc
c00006d0:	ff 75 e4             	push   DWORD PTR [ebp-0x1c]
c00006d3:	e8 50 0e 00 00       	call   c0001528 <pmm_free_page>
c00006d8:	83 c4 10             	add    esp,0x10
c00006db:	8b 45 f0             	mov    eax,DWORD PTR [ebp-0x10]
c00006de:	8d 14 85 00 00 00 00 	lea    edx,[eax*4+0x0]
c00006e5:	8b 45 ec             	mov    eax,DWORD PTR [ebp-0x14]
c00006e8:	01 d0                	add    eax,edx
c00006ea:	c7 00 00 00 00 00    	mov    DWORD PTR [eax],0x0
c00006f0:	83 ec 0c             	sub    esp,0xc
c00006f3:	ff 75 08             	push   DWORD PTR [ebp+0x8]
c00006f6:	e8 8a f9 ff ff       	call   c0000085 <flush_tlb_single>
c00006fb:	83 c4 10             	add    esp,0x10
c00006fe:	8b 5d fc             	mov    ebx,DWORD PTR [ebp-0x4]
c0000701:	c9                   	leave
c0000702:	c3                   	ret

c0000703 <paging_init>:
c0000703:	55                   	push   ebp
c0000704:	89 e5                	mov    ebp,esp
c0000706:	e8 60 01 00 00       	call   c000086b <__x86.get_pc_thunk.ax>
c000070b:	05 01 49 00 00       	add    eax,0x4901
c0000710:	c7 c0 00 20 10 00    	mov    eax,0x102000
c0000716:	c7 00 00 00 00 00    	mov    DWORD PTR [eax],0x0
c000071c:	e8 b4 f9 ff ff       	call   c00000d5 <flush_tlb>
c0000721:	90                   	nop
c0000722:	5d                   	pop    ebp
c0000723:	c3                   	ret

c0000724 <paging_run_tests>:
c0000724:	55                   	push   ebp
c0000725:	89 e5                	mov    ebp,esp
c0000727:	53                   	push   ebx
c0000728:	83 ec 14             	sub    esp,0x14
c000072b:	e8 3f 01 00 00       	call   c000086f <__x86.get_pc_thunk.bx>
c0000730:	81 c3 dc 48 00 00    	add    ebx,0x48dc
c0000736:	83 ec 0c             	sub    esp,0xc
c0000739:	8d 83 54 e3 ff ff    	lea    eax,[ebx-0x1cac]
c000073f:	50                   	push   eax
c0000740:	e8 21 02 00 00       	call   c0000966 <write_serial_string>
c0000745:	83 c4 10             	add    esp,0x10
c0000748:	e8 ea 0c 00 00       	call   c0001437 <pmm_alloc_page>
c000074d:	89 45 f4             	mov    DWORD PTR [ebp-0xc],eax
c0000750:	83 7d f4 00          	cmp    DWORD PTR [ebp-0xc],0x0
c0000754:	75 12                	jne    c0000768 <paging_run_tests+0x44>
c0000756:	83 ec 0c             	sub    esp,0xc
c0000759:	8d 83 70 e3 ff ff    	lea    eax,[ebx-0x1c90]
c000075f:	50                   	push   eax
c0000760:	e8 33 06 00 00       	call   c0000d98 <panic>
c0000765:	83 c4 10             	add    esp,0x10
c0000768:	c7 45 f0 00 00 00 40 	mov    DWORD PTR [ebp-0x10],0x40000000
c000076f:	83 ec 0c             	sub    esp,0xc
c0000772:	8d 83 9d e3 ff ff    	lea    eax,[ebx-0x1c63]
c0000778:	50                   	push   eax
c0000779:	e8 e8 01 00 00       	call   c0000966 <write_serial_string>
c000077e:	83 c4 10             	add    esp,0x10
c0000781:	83 ec 04             	sub    esp,0x4
c0000784:	6a 06                	push   0x6
c0000786:	ff 75 f4             	push   DWORD PTR [ebp-0xc]
c0000789:	ff 75 f0             	push   DWORD PTR [ebp-0x10]
c000078c:	e8 20 fa ff ff       	call   c00001b1 <paging_map_page>
c0000791:	83 c4 10             	add    esp,0x10
c0000794:	83 ec 0c             	sub    esp,0xc
c0000797:	8d 83 a6 e3 ff ff    	lea    eax,[ebx-0x1c5a]
c000079d:	50                   	push   eax
c000079e:	e8 c3 01 00 00       	call   c0000966 <write_serial_string>
c00007a3:	83 c4 10             	add    esp,0x10
c00007a6:	83 ec 0c             	sub    esp,0xc
c00007a9:	ff 75 f0             	push   DWORD PTR [ebp-0x10]
c00007ac:	e8 ad 02 00 00       	call   c0000a5e <serial_write_hex32>
c00007b1:	83 c4 10             	add    esp,0x10
c00007b4:	83 ec 0c             	sub    esp,0xc
c00007b7:	8d 83 c1 e3 ff ff    	lea    eax,[ebx-0x1c3f]
c00007bd:	50                   	push   eax
c00007be:	e8 a3 01 00 00       	call   c0000966 <write_serial_string>
c00007c3:	83 c4 10             	add    esp,0x10
c00007c6:	83 ec 0c             	sub    esp,0xc
c00007c9:	ff 75 f4             	push   DWORD PTR [ebp-0xc]
c00007cc:	e8 8d 02 00 00       	call   c0000a5e <serial_write_hex32>
c00007d1:	83 c4 10             	add    esp,0x10
c00007d4:	83 ec 0c             	sub    esp,0xc
c00007d7:	8d 83 41 e0 ff ff    	lea    eax,[ebx-0x1fbf]
c00007dd:	50                   	push   eax
c00007de:	e8 83 01 00 00       	call   c0000966 <write_serial_string>
c00007e3:	83 c4 10             	add    esp,0x10
c00007e6:	8b 45 f0             	mov    eax,DWORD PTR [ebp-0x10]
c00007e9:	89 45 ec             	mov    DWORD PTR [ebp-0x14],eax
c00007ec:	8b 45 ec             	mov    eax,DWORD PTR [ebp-0x14]
c00007ef:	c7 00 78 56 34 12    	mov    DWORD PTR [eax],0x12345678
c00007f5:	8b 45 ec             	mov    eax,DWORD PTR [ebp-0x14]
c00007f8:	8b 00                	mov    eax,DWORD PTR [eax]
c00007fa:	3d 78 56 34 12       	cmp    eax,0x12345678
c00007ff:	74 12                	je     c0000813 <paging_run_tests+0xef>
c0000801:	83 ec 0c             	sub    esp,0xc
c0000804:	8d 83 d4 e3 ff ff    	lea    eax,[ebx-0x1c2c]
c000080a:	50                   	push   eax
c000080b:	e8 88 05 00 00       	call   c0000d98 <panic>
c0000810:	83 c4 10             	add    esp,0x10
c0000813:	83 ec 0c             	sub    esp,0xc
c0000816:	ff 75 f0             	push   DWORD PTR [ebp-0x10]
c0000819:	e8 f2 fc ff ff       	call   c0000510 <paging_unmap_page>
c000081e:	83 c4 10             	add    esp,0x10
c0000821:	83 ec 0c             	sub    esp,0xc
c0000824:	8d 83 fc e3 ff ff    	lea    eax,[ebx-0x1c04]
c000082a:	50                   	push   eax
c000082b:	e8 36 01 00 00       	call   c0000966 <write_serial_string>
c0000830:	83 c4 10             	add    esp,0x10
c0000833:	83 ec 0c             	sub    esp,0xc
c0000836:	ff 75 f0             	push   DWORD PTR [ebp-0x10]
c0000839:	e8 20 02 00 00       	call   c0000a5e <serial_write_hex32>
c000083e:	83 c4 10             	add    esp,0x10
c0000841:	83 ec 0c             	sub    esp,0xc
c0000844:	8d 83 41 e0 ff ff    	lea    eax,[ebx-0x1fbf]
c000084a:	50                   	push   eax
c000084b:	e8 16 01 00 00       	call   c0000966 <write_serial_string>
c0000850:	83 c4 10             	add    esp,0x10
c0000853:	83 ec 0c             	sub    esp,0xc
c0000856:	8d 83 19 e4 ff ff    	lea    eax,[ebx-0x1be7]
c000085c:	50                   	push   eax
c000085d:	e8 04 01 00 00       	call   c0000966 <write_serial_string>
c0000862:	83 c4 10             	add    esp,0x10
c0000865:	90                   	nop
c0000866:	8b 5d fc             	mov    ebx,DWORD PTR [ebp-0x4]
c0000869:	c9                   	leave
c000086a:	c3                   	ret

c000086b <__x86.get_pc_thunk.ax>:
c000086b:	8b 04 24             	mov    eax,DWORD PTR [esp]
c000086e:	c3                   	ret

c000086f <__x86.get_pc_thunk.bx>:
c000086f:	8b 1c 24             	mov    ebx,DWORD PTR [esp]
c0000872:	c3                   	ret

c0000873 <outb>:
c0000873:	55                   	push   ebp
c0000874:	89 e5                	mov    ebp,esp
c0000876:	83 ec 08             	sub    esp,0x8
c0000879:	8b 55 08             	mov    edx,DWORD PTR [ebp+0x8]
c000087c:	8b 45 0c             	mov    eax,DWORD PTR [ebp+0xc]
c000087f:	66 89 55 fc          	mov    WORD PTR [ebp-0x4],dx
c0000883:	88 45 f8             	mov    BYTE PTR [ebp-0x8],al
c0000886:	0f b6 45 f8          	movzx  eax,BYTE PTR [ebp-0x8]
c000088a:	0f b7 55 fc          	movzx  edx,WORD PTR [ebp-0x4]
c000088e:	ee                   	out    dx,al
c000088f:	90                   	nop
c0000890:	c9                   	leave
c0000891:	c3                   	ret

c0000892 <inb>:
c0000892:	55                   	push   ebp
c0000893:	89 e5                	mov    ebp,esp
c0000895:	83 ec 14             	sub    esp,0x14
c0000898:	8b 45 08             	mov    eax,DWORD PTR [ebp+0x8]
c000089b:	66 89 45 ec          	mov    WORD PTR [ebp-0x14],ax
c000089f:	0f b7 45 ec          	movzx  eax,WORD PTR [ebp-0x14]
c00008a3:	89 c2                	mov    edx,eax
c00008a5:	ec                   	in     al,dx
c00008a6:	88 45 ff             	mov    BYTE PTR [ebp-0x1],al
c00008a9:	0f b6 45 ff          	movzx  eax,BYTE PTR [ebp-0x1]
c00008ad:	c9                   	leave
c00008ae:	c3                   	ret

c00008af <wait_for_transmit>:
c00008af:	55                   	push   ebp
c00008b0:	89 e5                	mov    ebp,esp
c00008b2:	83 ec 08             	sub    esp,0x8
c00008b5:	90                   	nop
c00008b6:	83 ec 0c             	sub    esp,0xc
c00008b9:	68 fd 03 00 00       	push   0x3fd
c00008be:	e8 cf ff ff ff       	call   c0000892 <inb>
c00008c3:	83 c4 10             	add    esp,0x10
c00008c6:	0f b6 c0             	movzx  eax,al
c00008c9:	83 e0 20             	and    eax,0x20
c00008cc:	85 c0                	test   eax,eax
c00008ce:	74 e6                	je     c00008b6 <wait_for_transmit+0x7>
c00008d0:	90                   	nop
c00008d1:	90                   	nop
c00008d2:	c9                   	leave
c00008d3:	c3                   	ret

c00008d4 <init_serial>:
c00008d4:	55                   	push   ebp
c00008d5:	89 e5                	mov    ebp,esp
c00008d7:	83 ec 08             	sub    esp,0x8
c00008da:	83 ec 08             	sub    esp,0x8
c00008dd:	6a 00                	push   0x0
c00008df:	68 f9 03 00 00       	push   0x3f9
c00008e4:	e8 8a ff ff ff       	call   c0000873 <outb>
c00008e9:	83 c4 10             	add    esp,0x10
c00008ec:	83 ec 08             	sub    esp,0x8
c00008ef:	68 80 00 00 00       	push   0x80
c00008f4:	68 fb 03 00 00       	push   0x3fb
c00008f9:	e8 75 ff ff ff       	call   c0000873 <outb>
c00008fe:	83 c4 10             	add    esp,0x10
c0000901:	83 ec 08             	sub    esp,0x8
c0000904:	6a 0c                	push   0xc
c0000906:	68 f8 03 00 00       	push   0x3f8
c000090b:	e8 63 ff ff ff       	call   c0000873 <outb>
c0000910:	83 c4 10             	add    esp,0x10
c0000913:	83 ec 08             	sub    esp,0x8
c0000916:	6a 03                	push   0x3
c0000918:	68 fb 03 00 00       	push   0x3fb
c000091d:	e8 51 ff ff ff       	call   c0000873 <outb>
c0000922:	83 c4 10             	add    esp,0x10
c0000925:	83 ec 08             	sub    esp,0x8
c0000928:	6a 01                	push   0x1
c000092a:	68 fa 03 00 00       	push   0x3fa
c000092f:	e8 3f ff ff ff       	call   c0000873 <outb>
c0000934:	83 c4 10             	add    esp,0x10
c0000937:	90                   	nop
c0000938:	c9                   	leave
c0000939:	c3                   	ret

c000093a <write_serial>:
c000093a:	55                   	push   ebp
c000093b:	89 e5                	mov    ebp,esp
c000093d:	83 ec 18             	sub    esp,0x18
c0000940:	8b 45 08             	mov    eax,DWORD PTR [ebp+0x8]
c0000943:	88 45 f4             	mov    BYTE PTR [ebp-0xc],al
c0000946:	e8 64 ff ff ff       	call   c00008af <wait_for_transmit>
c000094b:	0f b6 45 f4          	movzx  eax,BYTE PTR [ebp-0xc]
c000094f:	0f b6 c0             	movzx  eax,al
c0000952:	83 ec 08             	sub    esp,0x8
c0000955:	50                   	push   eax
c0000956:	68 f8 03 00 00       	push   0x3f8
c000095b:	e8 13 ff ff ff       	call   c0000873 <outb>
c0000960:	83 c4 10             	add    esp,0x10
c0000963:	90                   	nop
c0000964:	c9                   	leave
c0000965:	c3                   	ret

c0000966 <write_serial_string>:
c0000966:	55                   	push   ebp
c0000967:	89 e5                	mov    ebp,esp
c0000969:	83 ec 08             	sub    esp,0x8
c000096c:	83 7d 08 00          	cmp    DWORD PTR [ebp+0x8],0x0
c0000970:	74 29                	je     c000099b <write_serial_string+0x35>
c0000972:	eb 1b                	jmp    c000098f <write_serial_string+0x29>
c0000974:	8b 45 08             	mov    eax,DWORD PTR [ebp+0x8]
c0000977:	8d 50 01             	lea    edx,[eax+0x1]
c000097a:	89 55 08             	mov    DWORD PTR [ebp+0x8],edx
c000097d:	0f b6 00             	movzx  eax,BYTE PTR [eax]
c0000980:	0f be c0             	movsx  eax,al
c0000983:	83 ec 0c             	sub    esp,0xc
c0000986:	50                   	push   eax
c0000987:	e8 ae ff ff ff       	call   c000093a <write_serial>
c000098c:	83 c4 10             	add    esp,0x10
c000098f:	8b 45 08             	mov    eax,DWORD PTR [ebp+0x8]
c0000992:	0f b6 00             	movzx  eax,BYTE PTR [eax]
c0000995:	84 c0                	test   al,al
c0000997:	75 db                	jne    c0000974 <write_serial_string+0xe>
c0000999:	eb 01                	jmp    c000099c <write_serial_string+0x36>
c000099b:	90                   	nop
c000099c:	c9                   	leave
c000099d:	c3                   	ret

c000099e <serial_write_dec>:
c000099e:	55                   	push   ebp
c000099f:	89 e5                	mov    ebp,esp
c00009a1:	83 ec 18             	sub    esp,0x18
c00009a4:	83 7d 08 00          	cmp    DWORD PTR [ebp+0x8],0x0
c00009a8:	75 12                	jne    c00009bc <serial_write_dec+0x1e>
c00009aa:	83 ec 0c             	sub    esp,0xc
c00009ad:	6a 30                	push   0x30
c00009af:	e8 86 ff ff ff       	call   c000093a <write_serial>
c00009b4:	83 c4 10             	add    esp,0x10
c00009b7:	e9 a0 00 00 00       	jmp    c0000a5c <serial_write_dec+0xbe>
c00009bc:	83 7d 08 00          	cmp    DWORD PTR [ebp+0x8],0x0
c00009c0:	79 10                	jns    c00009d2 <serial_write_dec+0x34>
c00009c2:	83 ec 0c             	sub    esp,0xc
c00009c5:	6a 2d                	push   0x2d
c00009c7:	e8 6e ff ff ff       	call   c000093a <write_serial>
c00009cc:	83 c4 10             	add    esp,0x10
c00009cf:	f7 5d 08             	neg    DWORD PTR [ebp+0x8]
c00009d2:	c7 45 f4 00 00 00 00 	mov    DWORD PTR [ebp-0xc],0x0
c00009d9:	eb 52                	jmp    c0000a2d <serial_write_dec+0x8f>
c00009db:	8b 4d 08             	mov    ecx,DWORD PTR [ebp+0x8]
c00009de:	ba 67 66 66 66       	mov    edx,0x66666667
c00009e3:	89 c8                	mov    eax,ecx
c00009e5:	f7 ea                	imul   edx
c00009e7:	c1 fa 02             	sar    edx,0x2
c00009ea:	89 c8                	mov    eax,ecx
c00009ec:	c1 f8 1f             	sar    eax,0x1f
c00009ef:	29 c2                	sub    edx,eax
c00009f1:	89 d0                	mov    eax,edx
c00009f3:	c1 e0 02             	shl    eax,0x2
c00009f6:	01 d0                	add    eax,edx
c00009f8:	01 c0                	add    eax,eax
c00009fa:	29 c1                	sub    ecx,eax
c00009fc:	89 ca                	mov    edx,ecx
c00009fe:	89 d0                	mov    eax,edx
c0000a00:	8d 48 30             	lea    ecx,[eax+0x30]
c0000a03:	8b 45 f4             	mov    eax,DWORD PTR [ebp-0xc]
c0000a06:	8d 50 01             	lea    edx,[eax+0x1]
c0000a09:	89 55 f4             	mov    DWORD PTR [ebp-0xc],edx
c0000a0c:	89 ca                	mov    edx,ecx
c0000a0e:	88 54 05 e8          	mov    BYTE PTR [ebp+eax*1-0x18],dl
c0000a12:	8b 4d 08             	mov    ecx,DWORD PTR [ebp+0x8]
c0000a15:	ba 67 66 66 66       	mov    edx,0x66666667
c0000a1a:	89 c8                	mov    eax,ecx
c0000a1c:	f7 ea                	imul   edx
c0000a1e:	89 d0                	mov    eax,edx
c0000a20:	c1 f8 02             	sar    eax,0x2
c0000a23:	c1 f9 1f             	sar    ecx,0x1f
c0000a26:	89 ca                	mov    edx,ecx
c0000a28:	29 d0                	sub    eax,edx
c0000a2a:	89 45 08             	mov    DWORD PTR [ebp+0x8],eax
c0000a2d:	83 7d 08 00          	cmp    DWORD PTR [ebp+0x8],0x0
c0000a31:	7f a8                	jg     c00009db <serial_write_dec+0x3d>
c0000a33:	eb 1a                	jmp    c0000a4f <serial_write_dec+0xb1>
c0000a35:	8d 55 e8             	lea    edx,[ebp-0x18]
c0000a38:	8b 45 f4             	mov    eax,DWORD PTR [ebp-0xc]
c0000a3b:	01 d0                	add    eax,edx
c0000a3d:	0f b6 00             	movzx  eax,BYTE PTR [eax]
c0000a40:	0f be c0             	movsx  eax,al
c0000a43:	83 ec 0c             	sub    esp,0xc
c0000a46:	50                   	push   eax
c0000a47:	e8 ee fe ff ff       	call   c000093a <write_serial>
c0000a4c:	83 c4 10             	add    esp,0x10
c0000a4f:	8b 45 f4             	mov    eax,DWORD PTR [ebp-0xc]
c0000a52:	8d 50 ff             	lea    edx,[eax-0x1]
c0000a55:	89 55 f4             	mov    DWORD PTR [ebp-0xc],edx
c0000a58:	85 c0                	test   eax,eax
c0000a5a:	75 d9                	jne    c0000a35 <serial_write_dec+0x97>
c0000a5c:	c9                   	leave
c0000a5d:	c3                   	ret

c0000a5e <serial_write_hex32>:
c0000a5e:	55                   	push   ebp
c0000a5f:	89 e5                	mov    ebp,esp
c0000a61:	83 ec 18             	sub    esp,0x18
c0000a64:	83 ec 0c             	sub    esp,0xc
c0000a67:	68 3b 34 00 c0       	push   0xc000343b
c0000a6c:	e8 f5 fe ff ff       	call   c0000966 <write_serial_string>
c0000a71:	83 c4 10             	add    esp,0x10
c0000a74:	c7 45 f4 1c 00 00 00 	mov    DWORD PTR [ebp-0xc],0x1c
c0000a7b:	eb 3e                	jmp    c0000abb <serial_write_hex32+0x5d>
c0000a7d:	8b 45 f4             	mov    eax,DWORD PTR [ebp-0xc]
c0000a80:	8b 55 08             	mov    edx,DWORD PTR [ebp+0x8]
c0000a83:	89 c1                	mov    ecx,eax
c0000a85:	d3 ea                	shr    edx,cl
c0000a87:	89 d0                	mov    eax,edx
c0000a89:	83 e0 0f             	and    eax,0xf
c0000a8c:	88 45 f3             	mov    BYTE PTR [ebp-0xd],al
c0000a8f:	80 7d f3 09          	cmp    BYTE PTR [ebp-0xd],0x9
c0000a93:	77 0c                	ja     c0000aa1 <serial_write_hex32+0x43>
c0000a95:	0f b6 45 f3          	movzx  eax,BYTE PTR [ebp-0xd]
c0000a99:	83 c0 30             	add    eax,0x30
c0000a9c:	0f be c0             	movsx  eax,al
c0000a9f:	eb 0a                	jmp    c0000aab <serial_write_hex32+0x4d>
c0000aa1:	0f b6 45 f3          	movzx  eax,BYTE PTR [ebp-0xd]
c0000aa5:	83 c0 37             	add    eax,0x37
c0000aa8:	0f be c0             	movsx  eax,al
c0000aab:	83 ec 0c             	sub    esp,0xc
c0000aae:	50                   	push   eax
c0000aaf:	e8 86 fe ff ff       	call   c000093a <write_serial>
c0000ab4:	83 c4 10             	add    esp,0x10
c0000ab7:	83 6d f4 04          	sub    DWORD PTR [ebp-0xc],0x4
c0000abb:	83 7d f4 00          	cmp    DWORD PTR [ebp-0xc],0x0
c0000abf:	79 bc                	jns    c0000a7d <serial_write_hex32+0x1f>
c0000ac1:	90                   	nop
c0000ac2:	90                   	nop
c0000ac3:	c9                   	leave
c0000ac4:	c3                   	ret

c0000ac5 <serial_write_hex64>:
c0000ac5:	55                   	push   ebp
c0000ac6:	89 e5                	mov    ebp,esp
c0000ac8:	83 ec 28             	sub    esp,0x28
c0000acb:	8b 45 08             	mov    eax,DWORD PTR [ebp+0x8]
c0000ace:	89 45 e0             	mov    DWORD PTR [ebp-0x20],eax
c0000ad1:	8b 45 0c             	mov    eax,DWORD PTR [ebp+0xc]
c0000ad4:	89 45 e4             	mov    DWORD PTR [ebp-0x1c],eax
c0000ad7:	83 ec 0c             	sub    esp,0xc
c0000ada:	68 3b 34 00 c0       	push   0xc000343b
c0000adf:	e8 82 fe ff ff       	call   c0000966 <write_serial_string>
c0000ae4:	83 c4 10             	add    esp,0x10
c0000ae7:	c7 45 f4 3c 00 00 00 	mov    DWORD PTR [ebp-0xc],0x3c
c0000aee:	eb 49                	jmp    c0000b39 <serial_write_hex64+0x74>
c0000af0:	8b 4d f4             	mov    ecx,DWORD PTR [ebp-0xc]
c0000af3:	8b 45 e0             	mov    eax,DWORD PTR [ebp-0x20]
c0000af6:	8b 55 e4             	mov    edx,DWORD PTR [ebp-0x1c]
c0000af9:	0f ad d0             	shrd   eax,edx,cl
c0000afc:	d3 ea                	shr    edx,cl
c0000afe:	f6 c1 20             	test   cl,0x20
c0000b01:	74 04                	je     c0000b07 <serial_write_hex64+0x42>
c0000b03:	89 d0                	mov    eax,edx
c0000b05:	31 d2                	xor    edx,edx
c0000b07:	83 e0 0f             	and    eax,0xf
c0000b0a:	88 45 f3             	mov    BYTE PTR [ebp-0xd],al
c0000b0d:	80 7d f3 09          	cmp    BYTE PTR [ebp-0xd],0x9
c0000b11:	77 0c                	ja     c0000b1f <serial_write_hex64+0x5a>
c0000b13:	0f b6 45 f3          	movzx  eax,BYTE PTR [ebp-0xd]
c0000b17:	83 c0 30             	add    eax,0x30
c0000b1a:	0f be c0             	movsx  eax,al
c0000b1d:	eb 0a                	jmp    c0000b29 <serial_write_hex64+0x64>
c0000b1f:	0f b6 45 f3          	movzx  eax,BYTE PTR [ebp-0xd]
c0000b23:	83 c0 37             	add    eax,0x37
c0000b26:	0f be c0             	movsx  eax,al
c0000b29:	83 ec 0c             	sub    esp,0xc
c0000b2c:	50                   	push   eax
c0000b2d:	e8 08 fe ff ff       	call   c000093a <write_serial>
c0000b32:	83 c4 10             	add    esp,0x10
c0000b35:	83 6d f4 04          	sub    DWORD PTR [ebp-0xc],0x4
c0000b39:	83 7d f4 00          	cmp    DWORD PTR [ebp-0xc],0x0
c0000b3d:	79 b1                	jns    c0000af0 <serial_write_hex64+0x2b>
c0000b3f:	90                   	nop
c0000b40:	90                   	nop
c0000b41:	c9                   	leave
c0000b42:	c3                   	ret

c0000b43 <parse_memory_map>:
c0000b43:	55                   	push   ebp
c0000b44:	89 e5                	mov    ebp,esp
c0000b46:	57                   	push   edi
c0000b47:	56                   	push   esi
c0000b48:	53                   	push   ebx
c0000b49:	83 ec 2c             	sub    esp,0x2c
c0000b4c:	e8 1a fd ff ff       	call   c000086b <__x86.get_pc_thunk.ax>
c0000b51:	05 bb 44 00 00       	add    eax,0x44bb
c0000b56:	8b 55 08             	mov    edx,DWORD PTR [ebp+0x8]
c0000b59:	83 c2 08             	add    edx,0x8
c0000b5c:	89 55 e4             	mov    DWORD PTR [ebp-0x1c],edx
c0000b5f:	e9 02 01 00 00       	jmp    c0000c66 <parse_memory_map+0x123>
c0000b64:	8b 55 e4             	mov    edx,DWORD PTR [ebp-0x1c]
c0000b67:	8b 12                	mov    edx,DWORD PTR [edx]
c0000b69:	83 fa 06             	cmp    edx,0x6
c0000b6c:	0f 85 de 00 00 00    	jne    c0000c50 <parse_memory_map+0x10d>
c0000b72:	8b 55 e4             	mov    edx,DWORD PTR [ebp-0x1c]
c0000b75:	89 55 dc             	mov    DWORD PTR [ebp-0x24],edx
c0000b78:	8b 55 dc             	mov    edx,DWORD PTR [ebp-0x24]
c0000b7b:	83 c2 10             	add    edx,0x10
c0000b7e:	89 55 d8             	mov    DWORD PTR [ebp-0x28],edx
c0000b81:	8b 55 dc             	mov    edx,DWORD PTR [ebp-0x24]
c0000b84:	8b 52 04             	mov    edx,DWORD PTR [edx+0x4]
c0000b87:	83 ea 10             	sub    edx,0x10
c0000b8a:	89 55 d4             	mov    DWORD PTR [ebp-0x2c],edx
c0000b8d:	c7 45 e0 00 00 00 00 	mov    DWORD PTR [ebp-0x20],0x0
c0000b94:	e9 ab 00 00 00       	jmp    c0000c44 <parse_memory_map+0x101>
c0000b99:	8b 4d d8             	mov    ecx,DWORD PTR [ebp-0x28]
c0000b9c:	8b 55 e0             	mov    edx,DWORD PTR [ebp-0x20]
c0000b9f:	01 ca                	add    edx,ecx
c0000ba1:	89 55 d0             	mov    DWORD PTR [ebp-0x30],edx
c0000ba4:	8b 55 d0             	mov    edx,DWORD PTR [ebp-0x30]
c0000ba7:	8b 52 10             	mov    edx,DWORD PTR [edx+0x10]
c0000baa:	83 fa 01             	cmp    edx,0x1
c0000bad:	0f 85 88 00 00 00    	jne    c0000c3b <parse_memory_map+0xf8>
c0000bb3:	8b 90 74 52 00 00    	mov    edx,DWORD PTR [eax+0x5274]
c0000bb9:	83 fa 1f             	cmp    edx,0x1f
c0000bbc:	77 7d                	ja     c0000c3b <parse_memory_map+0xf8>
c0000bbe:	8b b0 74 52 00 00    	mov    esi,DWORD PTR [eax+0x5274]
c0000bc4:	8b 55 d0             	mov    edx,DWORD PTR [ebp-0x30]
c0000bc7:	8b 0a                	mov    ecx,DWORD PTR [edx]
c0000bc9:	8b 5a 04             	mov    ebx,DWORD PTR [edx+0x4]
c0000bcc:	8d b8 f4 4f 00 00    	lea    edi,[eax+0x4ff4]
c0000bd2:	89 f2                	mov    edx,esi
c0000bd4:	c1 e2 02             	shl    edx,0x2
c0000bd7:	01 f2                	add    edx,esi
c0000bd9:	c1 e2 02             	shl    edx,0x2
c0000bdc:	01 fa                	add    edx,edi
c0000bde:	89 0a                	mov    DWORD PTR [edx],ecx
c0000be0:	89 5a 04             	mov    DWORD PTR [edx+0x4],ebx
c0000be3:	8b b0 74 52 00 00    	mov    esi,DWORD PTR [eax+0x5274]
c0000be9:	8b 55 d0             	mov    edx,DWORD PTR [ebp-0x30]
c0000bec:	8b 4a 08             	mov    ecx,DWORD PTR [edx+0x8]
c0000bef:	8b 5a 0c             	mov    ebx,DWORD PTR [edx+0xc]
c0000bf2:	8d b8 fc 4f 00 00    	lea    edi,[eax+0x4ffc]
c0000bf8:	89 f2                	mov    edx,esi
c0000bfa:	c1 e2 02             	shl    edx,0x2
c0000bfd:	01 f2                	add    edx,esi
c0000bff:	c1 e2 02             	shl    edx,0x2
c0000c02:	01 fa                	add    edx,edi
c0000c04:	89 0a                	mov    DWORD PTR [edx],ecx
c0000c06:	89 5a 04             	mov    DWORD PTR [edx+0x4],ebx
c0000c09:	8b 88 74 52 00 00    	mov    ecx,DWORD PTR [eax+0x5274]
c0000c0f:	8b 55 d0             	mov    edx,DWORD PTR [ebp-0x30]
c0000c12:	8b 5a 10             	mov    ebx,DWORD PTR [edx+0x10]
c0000c15:	8d b0 f4 4f 00 00    	lea    esi,[eax+0x4ff4]
c0000c1b:	89 ca                	mov    edx,ecx
c0000c1d:	c1 e2 02             	shl    edx,0x2
c0000c20:	01 ca                	add    edx,ecx
c0000c22:	c1 e2 02             	shl    edx,0x2
c0000c25:	01 f2                	add    edx,esi
c0000c27:	83 c2 10             	add    edx,0x10
c0000c2a:	89 1a                	mov    DWORD PTR [edx],ebx
c0000c2c:	8b 90 74 52 00 00    	mov    edx,DWORD PTR [eax+0x5274]
c0000c32:	83 c2 01             	add    edx,0x1
c0000c35:	89 90 74 52 00 00    	mov    DWORD PTR [eax+0x5274],edx
c0000c3b:	8b 55 dc             	mov    edx,DWORD PTR [ebp-0x24]
c0000c3e:	8b 52 08             	mov    edx,DWORD PTR [edx+0x8]
c0000c41:	01 55 e0             	add    DWORD PTR [ebp-0x20],edx
c0000c44:	8b 55 e0             	mov    edx,DWORD PTR [ebp-0x20]
c0000c47:	3b 55 d4             	cmp    edx,DWORD PTR [ebp-0x2c]
c0000c4a:	0f 82 49 ff ff ff    	jb     c0000b99 <parse_memory_map+0x56>
c0000c50:	8b 55 e4             	mov    edx,DWORD PTR [ebp-0x1c]
c0000c53:	8b 52 04             	mov    edx,DWORD PTR [edx+0x4]
c0000c56:	83 c2 07             	add    edx,0x7
c0000c59:	89 d1                	mov    ecx,edx
c0000c5b:	83 e1 f8             	and    ecx,0xfffffff8
c0000c5e:	8b 55 e4             	mov    edx,DWORD PTR [ebp-0x1c]
c0000c61:	01 ca                	add    edx,ecx
c0000c63:	89 55 e4             	mov    DWORD PTR [ebp-0x1c],edx
c0000c66:	8b 55 e4             	mov    edx,DWORD PTR [ebp-0x1c]
c0000c69:	8b 12                	mov    edx,DWORD PTR [edx]
c0000c6b:	85 d2                	test   edx,edx
c0000c6d:	0f 85 f1 fe ff ff    	jne    c0000b64 <parse_memory_map+0x21>
c0000c73:	8b 90 74 52 00 00    	mov    edx,DWORD PTR [eax+0x5274]
c0000c79:	83 ec 08             	sub    esp,0x8
c0000c7c:	52                   	push   edx
c0000c7d:	8d 90 f4 4f 00 00    	lea    edx,[eax+0x4ff4]
c0000c83:	52                   	push   edx
c0000c84:	89 c3                	mov    ebx,eax
c0000c86:	e8 6e 04 00 00       	call   c00010f9 <pmm_init>
c0000c8b:	83 c4 10             	add    esp,0x10
c0000c8e:	90                   	nop
c0000c8f:	8d 65 f4             	lea    esp,[ebp-0xc]
c0000c92:	5b                   	pop    ebx
c0000c93:	5e                   	pop    esi
c0000c94:	5f                   	pop    edi
c0000c95:	5d                   	pop    ebp
c0000c96:	c3                   	ret

c0000c97 <memsets>:
c0000c97:	55                   	push   ebp
c0000c98:	89 e5                	mov    ebp,esp
c0000c9a:	53                   	push   ebx
c0000c9b:	83 ec 14             	sub    esp,0x14
c0000c9e:	e8 cc fb ff ff       	call   c000086f <__x86.get_pc_thunk.bx>
c0000ca3:	81 c3 69 43 00 00    	add    ebx,0x4369
c0000ca9:	83 ec 0c             	sub    esp,0xc
c0000cac:	8d 83 32 e4 ff ff    	lea    eax,[ebx-0x1bce]
c0000cb2:	50                   	push   eax
c0000cb3:	e8 ae fc ff ff       	call   c0000966 <write_serial_string>
c0000cb8:	83 c4 10             	add    esp,0x10
c0000cbb:	8b 45 08             	mov    eax,DWORD PTR [ebp+0x8]
c0000cbe:	83 ec 0c             	sub    esp,0xc
c0000cc1:	50                   	push   eax
c0000cc2:	e8 97 fd ff ff       	call   c0000a5e <serial_write_hex32>
c0000cc7:	83 c4 10             	add    esp,0x10
c0000cca:	83 ec 0c             	sub    esp,0xc
c0000ccd:	8d 83 4f e4 ff ff    	lea    eax,[ebx-0x1bb1]
c0000cd3:	50                   	push   eax
c0000cd4:	e8 8d fc ff ff       	call   c0000966 <write_serial_string>
c0000cd9:	83 c4 10             	add    esp,0x10
c0000cdc:	8b 45 0c             	mov    eax,DWORD PTR [ebp+0xc]
c0000cdf:	83 ec 0c             	sub    esp,0xc
c0000ce2:	50                   	push   eax
c0000ce3:	e8 76 fd ff ff       	call   c0000a5e <serial_write_hex32>
c0000ce8:	83 c4 10             	add    esp,0x10
c0000ceb:	83 ec 0c             	sub    esp,0xc
c0000cee:	8d 83 5a e4 ff ff    	lea    eax,[ebx-0x1ba6]
c0000cf4:	50                   	push   eax
c0000cf5:	e8 6c fc ff ff       	call   c0000966 <write_serial_string>
c0000cfa:	83 c4 10             	add    esp,0x10
c0000cfd:	83 ec 0c             	sub    esp,0xc
c0000d00:	ff 75 10             	push   DWORD PTR [ebp+0x10]
c0000d03:	e8 56 fd ff ff       	call   c0000a5e <serial_write_hex32>
c0000d08:	83 c4 10             	add    esp,0x10
c0000d0b:	83 ec 0c             	sub    esp,0xc
c0000d0e:	8d 83 61 e4 ff ff    	lea    eax,[ebx-0x1b9f]
c0000d14:	50                   	push   eax
c0000d15:	e8 4c fc ff ff       	call   c0000966 <write_serial_string>
c0000d1a:	83 c4 10             	add    esp,0x10
c0000d1d:	8b 45 08             	mov    eax,DWORD PTR [ebp+0x8]
c0000d20:	89 45 f0             	mov    DWORD PTR [ebp-0x10],eax
c0000d23:	c7 45 f4 00 00 00 00 	mov    DWORD PTR [ebp-0xc],0x0
c0000d2a:	eb 11                	jmp    c0000d3d <memsets+0xa6>
c0000d2c:	8b 55 f0             	mov    edx,DWORD PTR [ebp-0x10]
c0000d2f:	8b 45 f4             	mov    eax,DWORD PTR [ebp-0xc]
c0000d32:	01 d0                	add    eax,edx
c0000d34:	8b 55 0c             	mov    edx,DWORD PTR [ebp+0xc]
c0000d37:	88 10                	mov    BYTE PTR [eax],dl
c0000d39:	83 45 f4 01          	add    DWORD PTR [ebp-0xc],0x1
c0000d3d:	8b 45 f4             	mov    eax,DWORD PTR [ebp-0xc]
c0000d40:	3b 45 10             	cmp    eax,DWORD PTR [ebp+0x10]
c0000d43:	72 e7                	jb     c0000d2c <memsets+0x95>
c0000d45:	8b 45 08             	mov    eax,DWORD PTR [ebp+0x8]
c0000d48:	8b 5d fc             	mov    ebx,DWORD PTR [ebp-0x4]
c0000d4b:	c9                   	leave
c0000d4c:	c3                   	ret

c0000d4d <memcpys>:
c0000d4d:	55                   	push   ebp
c0000d4e:	89 e5                	mov    ebp,esp
c0000d50:	83 ec 10             	sub    esp,0x10
c0000d53:	e8 13 fb ff ff       	call   c000086b <__x86.get_pc_thunk.ax>
c0000d58:	05 b4 42 00 00       	add    eax,0x42b4
c0000d5d:	8b 45 08             	mov    eax,DWORD PTR [ebp+0x8]
c0000d60:	89 45 f8             	mov    DWORD PTR [ebp-0x8],eax
c0000d63:	8b 45 0c             	mov    eax,DWORD PTR [ebp+0xc]
c0000d66:	89 45 f4             	mov    DWORD PTR [ebp-0xc],eax
c0000d69:	c7 45 fc 00 00 00 00 	mov    DWORD PTR [ebp-0x4],0x0
c0000d70:	eb 19                	jmp    c0000d8b <memcpys+0x3e>
c0000d72:	8b 55 f4             	mov    edx,DWORD PTR [ebp-0xc]
c0000d75:	8b 45 fc             	mov    eax,DWORD PTR [ebp-0x4]
c0000d78:	01 d0                	add    eax,edx
c0000d7a:	8b 4d f8             	mov    ecx,DWORD PTR [ebp-0x8]
c0000d7d:	8b 55 fc             	mov    edx,DWORD PTR [ebp-0x4]
c0000d80:	01 ca                	add    edx,ecx
c0000d82:	0f b6 00             	movzx  eax,BYTE PTR [eax]
c0000d85:	88 02                	mov    BYTE PTR [edx],al
c0000d87:	83 45 fc 01          	add    DWORD PTR [ebp-0x4],0x1
c0000d8b:	8b 45 fc             	mov    eax,DWORD PTR [ebp-0x4]
c0000d8e:	3b 45 10             	cmp    eax,DWORD PTR [ebp+0x10]
c0000d91:	72 df                	jb     c0000d72 <memcpys+0x25>
c0000d93:	8b 45 08             	mov    eax,DWORD PTR [ebp+0x8]
c0000d96:	c9                   	leave
c0000d97:	c3                   	ret

c0000d98 <panic>:
c0000d98:	55                   	push   ebp
c0000d99:	89 e5                	mov    ebp,esp
c0000d9b:	83 ec 18             	sub    esp,0x18
c0000d9e:	83 ec 0c             	sub    esp,0xc
c0000da1:	68 6f 34 00 c0       	push   0xc000346f
c0000da6:	e8 bb fb ff ff       	call   c0000966 <write_serial_string>
c0000dab:	83 c4 10             	add    esp,0x10
c0000dae:	83 ec 0c             	sub    esp,0xc
c0000db1:	ff 75 08             	push   DWORD PTR [ebp+0x8]
c0000db4:	e8 ad fb ff ff       	call   c0000966 <write_serial_string>
c0000db9:	83 c4 10             	add    esp,0x10
c0000dbc:	83 ec 0c             	sub    esp,0xc
c0000dbf:	6a 0a                	push   0xa
c0000dc1:	e8 74 fb ff ff       	call   c000093a <write_serial>
c0000dc6:	83 c4 10             	add    esp,0x10
c0000dc9:	89 e0                	mov    eax,esp
c0000dcb:	89 45 f4             	mov    DWORD PTR [ebp-0xc],eax
c0000dce:	e8 78 00 00 00       	call   c0000e4b <get_eip>
c0000dd3:	89 45 f0             	mov    DWORD PTR [ebp-0x10],eax
c0000dd6:	83 ec 0c             	sub    esp,0xc
c0000dd9:	68 7f 34 00 c0       	push   0xc000347f
c0000dde:	e8 83 fb ff ff       	call   c0000966 <write_serial_string>
c0000de3:	83 c4 10             	add    esp,0x10
c0000de6:	83 ec 0c             	sub    esp,0xc
c0000de9:	ff 75 f0             	push   DWORD PTR [ebp-0x10]
c0000dec:	e8 6d fc ff ff       	call   c0000a5e <serial_write_hex32>
c0000df1:	83 c4 10             	add    esp,0x10
c0000df4:	83 ec 0c             	sub    esp,0xc
c0000df7:	6a 0a                	push   0xa
c0000df9:	e8 3c fb ff ff       	call   c000093a <write_serial>
c0000dfe:	83 c4 10             	add    esp,0x10
c0000e01:	83 ec 0c             	sub    esp,0xc
c0000e04:	68 85 34 00 c0       	push   0xc0003485
c0000e09:	e8 58 fb ff ff       	call   c0000966 <write_serial_string>
c0000e0e:	83 c4 10             	add    esp,0x10
c0000e11:	8b 45 f4             	mov    eax,DWORD PTR [ebp-0xc]
c0000e14:	83 ec 0c             	sub    esp,0xc
c0000e17:	50                   	push   eax
c0000e18:	e8 41 fc ff ff       	call   c0000a5e <serial_write_hex32>
c0000e1d:	83 c4 10             	add    esp,0x10
c0000e20:	83 ec 0c             	sub    esp,0xc
c0000e23:	6a 0a                	push   0xa
c0000e25:	e8 10 fb ff ff       	call   c000093a <write_serial>
c0000e2a:	83 c4 10             	add    esp,0x10
c0000e2d:	e8 2d 00 00 00       	call   c0000e5f <dump_cpu_registers>
c0000e32:	e8 c1 01 00 00       	call   c0000ff8 <panic_print_backtrace>
c0000e37:	83 ec 08             	sub    esp,0x8
c0000e3a:	6a 20                	push   0x20
c0000e3c:	ff 75 f4             	push   DWORD PTR [ebp-0xc]
c0000e3f:	e8 31 02 00 00       	call   c0001075 <print_stack>
c0000e44:	83 c4 10             	add    esp,0x10
c0000e47:	fa                   	cli
c0000e48:	f4                   	hlt
c0000e49:	eb fc                	jmp    c0000e47 <panic+0xaf>

c0000e4b <get_eip>:
c0000e4b:	55                   	push   ebp
c0000e4c:	89 e5                	mov    ebp,esp
c0000e4e:	83 ec 10             	sub    esp,0x10
c0000e51:	e8 00 00 00 00       	call   c0000e56 <get_eip+0xb>
c0000e56:	58                   	pop    eax
c0000e57:	89 45 fc             	mov    DWORD PTR [ebp-0x4],eax
c0000e5a:	8b 45 fc             	mov    eax,DWORD PTR [ebp-0x4]
c0000e5d:	c9                   	leave
c0000e5e:	c3                   	ret

c0000e5f <dump_cpu_registers>:
c0000e5f:	55                   	push   ebp
c0000e60:	89 e5                	mov    ebp,esp
c0000e62:	83 ec 28             	sub    esp,0x28
c0000e65:	89 c0                	mov    eax,eax
c0000e67:	89 45 f4             	mov    DWORD PTR [ebp-0xc],eax
c0000e6a:	89 d8                	mov    eax,ebx
c0000e6c:	89 45 f0             	mov    DWORD PTR [ebp-0x10],eax
c0000e6f:	89 c8                	mov    eax,ecx
c0000e71:	89 45 ec             	mov    DWORD PTR [ebp-0x14],eax
c0000e74:	89 d0                	mov    eax,edx
c0000e76:	89 45 e8             	mov    DWORD PTR [ebp-0x18],eax
c0000e79:	89 f0                	mov    eax,esi
c0000e7b:	89 45 e4             	mov    DWORD PTR [ebp-0x1c],eax
c0000e7e:	89 f8                	mov    eax,edi
c0000e80:	89 45 e0             	mov    DWORD PTR [ebp-0x20],eax
c0000e83:	89 e8                	mov    eax,ebp
c0000e85:	89 45 dc             	mov    DWORD PTR [ebp-0x24],eax
c0000e88:	89 e0                	mov    eax,esp
c0000e8a:	89 45 d8             	mov    DWORD PTR [ebp-0x28],eax
c0000e8d:	83 ec 0c             	sub    esp,0xc
c0000e90:	68 93 34 00 c0       	push   0xc0003493
c0000e95:	e8 cc fa ff ff       	call   c0000966 <write_serial_string>
c0000e9a:	83 c4 10             	add    esp,0x10
c0000e9d:	83 ec 0c             	sub    esp,0xc
c0000ea0:	68 ae 34 00 c0       	push   0xc00034ae
c0000ea5:	e8 bc fa ff ff       	call   c0000966 <write_serial_string>
c0000eaa:	83 c4 10             	add    esp,0x10
c0000ead:	83 ec 0c             	sub    esp,0xc
c0000eb0:	ff 75 f4             	push   DWORD PTR [ebp-0xc]
c0000eb3:	e8 a6 fb ff ff       	call   c0000a5e <serial_write_hex32>
c0000eb8:	83 c4 10             	add    esp,0x10
c0000ebb:	83 ec 0c             	sub    esp,0xc
c0000ebe:	6a 0a                	push   0xa
c0000ec0:	e8 75 fa ff ff       	call   c000093a <write_serial>
c0000ec5:	83 c4 10             	add    esp,0x10
c0000ec8:	83 ec 0c             	sub    esp,0xc
c0000ecb:	68 b4 34 00 c0       	push   0xc00034b4
c0000ed0:	e8 91 fa ff ff       	call   c0000966 <write_serial_string>
c0000ed5:	83 c4 10             	add    esp,0x10
c0000ed8:	83 ec 0c             	sub    esp,0xc
c0000edb:	ff 75 f0             	push   DWORD PTR [ebp-0x10]
c0000ede:	e8 7b fb ff ff       	call   c0000a5e <serial_write_hex32>
c0000ee3:	83 c4 10             	add    esp,0x10
c0000ee6:	83 ec 0c             	sub    esp,0xc
c0000ee9:	6a 0a                	push   0xa
c0000eeb:	e8 4a fa ff ff       	call   c000093a <write_serial>
c0000ef0:	83 c4 10             	add    esp,0x10
c0000ef3:	83 ec 0c             	sub    esp,0xc
c0000ef6:	68 ba 34 00 c0       	push   0xc00034ba
c0000efb:	e8 66 fa ff ff       	call   c0000966 <write_serial_string>
c0000f00:	83 c4 10             	add    esp,0x10
c0000f03:	83 ec 0c             	sub    esp,0xc
c0000f06:	ff 75 ec             	push   DWORD PTR [ebp-0x14]
c0000f09:	e8 50 fb ff ff       	call   c0000a5e <serial_write_hex32>
c0000f0e:	83 c4 10             	add    esp,0x10
c0000f11:	83 ec 0c             	sub    esp,0xc
c0000f14:	6a 0a                	push   0xa
c0000f16:	e8 1f fa ff ff       	call   c000093a <write_serial>
c0000f1b:	83 c4 10             	add    esp,0x10
c0000f1e:	83 ec 0c             	sub    esp,0xc
c0000f21:	68 c0 34 00 c0       	push   0xc00034c0
c0000f26:	e8 3b fa ff ff       	call   c0000966 <write_serial_string>
c0000f2b:	83 c4 10             	add    esp,0x10
c0000f2e:	83 ec 0c             	sub    esp,0xc
c0000f31:	ff 75 e8             	push   DWORD PTR [ebp-0x18]
c0000f34:	e8 25 fb ff ff       	call   c0000a5e <serial_write_hex32>
c0000f39:	83 c4 10             	add    esp,0x10
c0000f3c:	83 ec 0c             	sub    esp,0xc
c0000f3f:	6a 0a                	push   0xa
c0000f41:	e8 f4 f9 ff ff       	call   c000093a <write_serial>
c0000f46:	83 c4 10             	add    esp,0x10
c0000f49:	83 ec 0c             	sub    esp,0xc
c0000f4c:	68 c6 34 00 c0       	push   0xc00034c6
c0000f51:	e8 10 fa ff ff       	call   c0000966 <write_serial_string>
c0000f56:	83 c4 10             	add    esp,0x10
c0000f59:	83 ec 0c             	sub    esp,0xc
c0000f5c:	ff 75 e4             	push   DWORD PTR [ebp-0x1c]
c0000f5f:	e8 fa fa ff ff       	call   c0000a5e <serial_write_hex32>
c0000f64:	83 c4 10             	add    esp,0x10
c0000f67:	83 ec 0c             	sub    esp,0xc
c0000f6a:	6a 0a                	push   0xa
c0000f6c:	e8 c9 f9 ff ff       	call   c000093a <write_serial>
c0000f71:	83 c4 10             	add    esp,0x10
c0000f74:	83 ec 0c             	sub    esp,0xc
c0000f77:	68 cc 34 00 c0       	push   0xc00034cc
c0000f7c:	e8 e5 f9 ff ff       	call   c0000966 <write_serial_string>
c0000f81:	83 c4 10             	add    esp,0x10
c0000f84:	83 ec 0c             	sub    esp,0xc
c0000f87:	ff 75 e0             	push   DWORD PTR [ebp-0x20]
c0000f8a:	e8 cf fa ff ff       	call   c0000a5e <serial_write_hex32>
c0000f8f:	83 c4 10             	add    esp,0x10
c0000f92:	83 ec 0c             	sub    esp,0xc
c0000f95:	6a 0a                	push   0xa
c0000f97:	e8 9e f9 ff ff       	call   c000093a <write_serial>
c0000f9c:	83 c4 10             	add    esp,0x10
c0000f9f:	83 ec 0c             	sub    esp,0xc
c0000fa2:	68 d2 34 00 c0       	push   0xc00034d2
c0000fa7:	e8 ba f9 ff ff       	call   c0000966 <write_serial_string>
c0000fac:	83 c4 10             	add    esp,0x10
c0000faf:	83 ec 0c             	sub    esp,0xc
c0000fb2:	ff 75 dc             	push   DWORD PTR [ebp-0x24]
c0000fb5:	e8 a4 fa ff ff       	call   c0000a5e <serial_write_hex32>
c0000fba:	83 c4 10             	add    esp,0x10
c0000fbd:	83 ec 0c             	sub    esp,0xc
c0000fc0:	6a 0a                	push   0xa
c0000fc2:	e8 73 f9 ff ff       	call   c000093a <write_serial>
c0000fc7:	83 c4 10             	add    esp,0x10
c0000fca:	83 ec 0c             	sub    esp,0xc
c0000fcd:	68 d8 34 00 c0       	push   0xc00034d8
c0000fd2:	e8 8f f9 ff ff       	call   c0000966 <write_serial_string>
c0000fd7:	83 c4 10             	add    esp,0x10
c0000fda:	83 ec 0c             	sub    esp,0xc
c0000fdd:	ff 75 d8             	push   DWORD PTR [ebp-0x28]
c0000fe0:	e8 79 fa ff ff       	call   c0000a5e <serial_write_hex32>
c0000fe5:	83 c4 10             	add    esp,0x10
c0000fe8:	83 ec 0c             	sub    esp,0xc
c0000feb:	6a 0a                	push   0xa
c0000fed:	e8 48 f9 ff ff       	call   c000093a <write_serial>
c0000ff2:	83 c4 10             	add    esp,0x10
c0000ff5:	90                   	nop
c0000ff6:	c9                   	leave
c0000ff7:	c3                   	ret

c0000ff8 <panic_print_backtrace>:
c0000ff8:	55                   	push   ebp
c0000ff9:	89 e5                	mov    ebp,esp
c0000ffb:	83 ec 18             	sub    esp,0x18
c0000ffe:	89 e8                	mov    eax,ebp
c0001000:	89 45 f4             	mov    DWORD PTR [ebp-0xc],eax
c0001003:	83 ec 0c             	sub    esp,0xc
c0001006:	68 de 34 00 c0       	push   0xc00034de
c000100b:	e8 56 f9 ff ff       	call   c0000966 <write_serial_string>
c0001010:	83 c4 10             	add    esp,0x10
c0001013:	c7 45 f0 00 00 00 00 	mov    DWORD PTR [ebp-0x10],0x0
c000101a:	eb 50                	jmp    c000106c <panic_print_backtrace+0x74>
c000101c:	83 7d f4 00          	cmp    DWORD PTR [ebp-0xc],0x0
c0001020:	74 50                	je     c0001072 <panic_print_backtrace+0x7a>
c0001022:	8b 45 f4             	mov    eax,DWORD PTR [ebp-0xc]
c0001025:	3d ff 0f 00 00       	cmp    eax,0xfff
c000102a:	76 46                	jbe    c0001072 <panic_print_backtrace+0x7a>
c000102c:	8b 45 f4             	mov    eax,DWORD PTR [ebp-0xc]
c000102f:	8b 40 04             	mov    eax,DWORD PTR [eax+0x4]
c0001032:	89 45 ec             	mov    DWORD PTR [ebp-0x14],eax
c0001035:	83 ec 0c             	sub    esp,0xc
c0001038:	68 f7 34 00 c0       	push   0xc00034f7
c000103d:	e8 24 f9 ff ff       	call   c0000966 <write_serial_string>
c0001042:	83 c4 10             	add    esp,0x10
c0001045:	83 ec 0c             	sub    esp,0xc
c0001048:	ff 75 ec             	push   DWORD PTR [ebp-0x14]
c000104b:	e8 0e fa ff ff       	call   c0000a5e <serial_write_hex32>
c0001050:	83 c4 10             	add    esp,0x10
c0001053:	83 ec 0c             	sub    esp,0xc
c0001056:	6a 0a                	push   0xa
c0001058:	e8 dd f8 ff ff       	call   c000093a <write_serial>
c000105d:	83 c4 10             	add    esp,0x10
c0001060:	8b 45 f4             	mov    eax,DWORD PTR [ebp-0xc]
c0001063:	8b 00                	mov    eax,DWORD PTR [eax]
c0001065:	89 45 f4             	mov    DWORD PTR [ebp-0xc],eax
c0001068:	83 45 f0 01          	add    DWORD PTR [ebp-0x10],0x1
c000106c:	83 7d f0 09          	cmp    DWORD PTR [ebp-0x10],0x9
c0001070:	7e aa                	jle    c000101c <panic_print_backtrace+0x24>
c0001072:	90                   	nop
c0001073:	c9                   	leave
c0001074:	c3                   	ret

c0001075 <print_stack>:
c0001075:	55                   	push   ebp
c0001076:	89 e5                	mov    ebp,esp
c0001078:	83 ec 18             	sub    esp,0x18
c000107b:	83 ec 0c             	sub    esp,0xc
c000107e:	68 0c 35 00 c0       	push   0xc000350c
c0001083:	e8 de f8 ff ff       	call   c0000966 <write_serial_string>
c0001088:	83 c4 10             	add    esp,0x10
c000108b:	c7 45 f4 00 00 00 00 	mov    DWORD PTR [ebp-0xc],0x0
c0001092:	eb 59                	jmp    c00010ed <print_stack+0x78>
c0001094:	8b 45 f4             	mov    eax,DWORD PTR [ebp-0xc]
c0001097:	8d 14 85 00 00 00 00 	lea    edx,[eax*4+0x0]
c000109e:	8b 45 08             	mov    eax,DWORD PTR [ebp+0x8]
c00010a1:	01 d0                	add    eax,edx
c00010a3:	83 ec 0c             	sub    esp,0xc
c00010a6:	50                   	push   eax
c00010a7:	e8 b2 f9 ff ff       	call   c0000a5e <serial_write_hex32>
c00010ac:	83 c4 10             	add    esp,0x10
c00010af:	83 ec 0c             	sub    esp,0xc
c00010b2:	68 20 35 00 c0       	push   0xc0003520
c00010b7:	e8 aa f8 ff ff       	call   c0000966 <write_serial_string>
c00010bc:	83 c4 10             	add    esp,0x10
c00010bf:	8b 45 f4             	mov    eax,DWORD PTR [ebp-0xc]
c00010c2:	8d 14 85 00 00 00 00 	lea    edx,[eax*4+0x0]
c00010c9:	8b 45 08             	mov    eax,DWORD PTR [ebp+0x8]
c00010cc:	01 d0                	add    eax,edx
c00010ce:	8b 00                	mov    eax,DWORD PTR [eax]
c00010d0:	83 ec 0c             	sub    esp,0xc
c00010d3:	50                   	push   eax
c00010d4:	e8 85 f9 ff ff       	call   c0000a5e <serial_write_hex32>
c00010d9:	83 c4 10             	add    esp,0x10
c00010dc:	83 ec 0c             	sub    esp,0xc
c00010df:	6a 0a                	push   0xa
c00010e1:	e8 54 f8 ff ff       	call   c000093a <write_serial>
c00010e6:	83 c4 10             	add    esp,0x10
c00010e9:	83 45 f4 01          	add    DWORD PTR [ebp-0xc],0x1
c00010ed:	8b 45 f4             	mov    eax,DWORD PTR [ebp-0xc]
c00010f0:	3b 45 0c             	cmp    eax,DWORD PTR [ebp+0xc]
c00010f3:	7c 9f                	jl     c0001094 <print_stack+0x1f>
c00010f5:	90                   	nop
c00010f6:	90                   	nop
c00010f7:	c9                   	leave
c00010f8:	c3                   	ret

c00010f9 <pmm_init>:
c00010f9:	55                   	push   ebp
c00010fa:	89 e5                	mov    ebp,esp
c00010fc:	53                   	push   ebx
c00010fd:	83 ec 34             	sub    esp,0x34
c0001100:	c7 05 a0 a2 00 c0 ff 	mov    DWORD PTR ds:0xc000a2a0,0xffffffff
c0001107:	ff ff ff 
c000110a:	c7 05 a4 a2 00 c0 ff 	mov    DWORD PTR ds:0xc000a2a4,0xffffffff
c0001111:	ff ff ff 
c0001114:	c7 05 a8 a2 00 c0 00 	mov    DWORD PTR ds:0xc000a2a8,0x0
c000111b:	00 00 00 
c000111e:	c7 05 ac a2 00 c0 00 	mov    DWORD PTR ds:0xc000a2ac,0x0
c0001125:	00 00 00 
c0001128:	c7 45 f4 00 00 00 00 	mov    DWORD PTR [ebp-0xc],0x0
c000112f:	e9 01 01 00 00       	jmp    c0001235 <pmm_init+0x13c>
c0001134:	8b 55 f4             	mov    edx,DWORD PTR [ebp-0xc]
c0001137:	89 d0                	mov    eax,edx
c0001139:	c1 e0 02             	shl    eax,0x2
c000113c:	01 d0                	add    eax,edx
c000113e:	c1 e0 02             	shl    eax,0x2
c0001141:	89 c2                	mov    edx,eax
c0001143:	8b 45 08             	mov    eax,DWORD PTR [ebp+0x8]
c0001146:	01 d0                	add    eax,edx
c0001148:	8b 40 10             	mov    eax,DWORD PTR [eax+0x10]
c000114b:	83 f8 01             	cmp    eax,0x1
c000114e:	0f 85 dc 00 00 00    	jne    c0001230 <pmm_init+0x137>
c0001154:	8b 55 f4             	mov    edx,DWORD PTR [ebp-0xc]
c0001157:	89 d0                	mov    eax,edx
c0001159:	c1 e0 02             	shl    eax,0x2
c000115c:	01 d0                	add    eax,edx
c000115e:	c1 e0 02             	shl    eax,0x2
c0001161:	89 c2                	mov    edx,eax
c0001163:	8b 45 08             	mov    eax,DWORD PTR [ebp+0x8]
c0001166:	01 d0                	add    eax,edx
c0001168:	8b 08                	mov    ecx,DWORD PTR [eax]
c000116a:	8b 58 04             	mov    ebx,DWORD PTR [eax+0x4]
c000116d:	a1 a0 a2 00 c0       	mov    eax,ds:0xc000a2a0
c0001172:	8b 15 a4 a2 00 c0    	mov    edx,DWORD PTR ds:0xc000a2a4
c0001178:	39 c1                	cmp    ecx,eax
c000117a:	19 d3                	sbb    ebx,edx
c000117c:	73 24                	jae    c00011a2 <pmm_init+0xa9>
c000117e:	8b 55 f4             	mov    edx,DWORD PTR [ebp-0xc]
c0001181:	89 d0                	mov    eax,edx
c0001183:	c1 e0 02             	shl    eax,0x2
c0001186:	01 d0                	add    eax,edx
c0001188:	c1 e0 02             	shl    eax,0x2
c000118b:	89 c2                	mov    edx,eax
c000118d:	8b 45 08             	mov    eax,DWORD PTR [ebp+0x8]
c0001190:	01 d0                	add    eax,edx
c0001192:	8b 50 04             	mov    edx,DWORD PTR [eax+0x4]
c0001195:	8b 00                	mov    eax,DWORD PTR [eax]
c0001197:	a3 a0 a2 00 c0       	mov    ds:0xc000a2a0,eax
c000119c:	89 15 a4 a2 00 c0    	mov    DWORD PTR ds:0xc000a2a4,edx
c00011a2:	8b 55 f4             	mov    edx,DWORD PTR [ebp-0xc]
c00011a5:	89 d0                	mov    eax,edx
c00011a7:	c1 e0 02             	shl    eax,0x2
c00011aa:	01 d0                	add    eax,edx
c00011ac:	c1 e0 02             	shl    eax,0x2
c00011af:	89 c2                	mov    edx,eax
c00011b1:	8b 45 08             	mov    eax,DWORD PTR [ebp+0x8]
c00011b4:	01 d0                	add    eax,edx
c00011b6:	8b 08                	mov    ecx,DWORD PTR [eax]
c00011b8:	8b 58 04             	mov    ebx,DWORD PTR [eax+0x4]
c00011bb:	8b 55 f4             	mov    edx,DWORD PTR [ebp-0xc]
c00011be:	89 d0                	mov    eax,edx
c00011c0:	c1 e0 02             	shl    eax,0x2
c00011c3:	01 d0                	add    eax,edx
c00011c5:	c1 e0 02             	shl    eax,0x2
c00011c8:	89 c2                	mov    edx,eax
c00011ca:	8b 45 08             	mov    eax,DWORD PTR [ebp+0x8]
c00011cd:	01 d0                	add    eax,edx
c00011cf:	8b 50 0c             	mov    edx,DWORD PTR [eax+0xc]
c00011d2:	8b 40 08             	mov    eax,DWORD PTR [eax+0x8]
c00011d5:	01 c1                	add    ecx,eax
c00011d7:	11 d3                	adc    ebx,edx
c00011d9:	a1 a8 a2 00 c0       	mov    eax,ds:0xc000a2a8
c00011de:	8b 15 ac a2 00 c0    	mov    edx,DWORD PTR ds:0xc000a2ac
c00011e4:	39 c8                	cmp    eax,ecx
c00011e6:	89 d0                	mov    eax,edx
c00011e8:	19 d8                	sbb    eax,ebx
c00011ea:	73 45                	jae    c0001231 <pmm_init+0x138>
c00011ec:	8b 55 f4             	mov    edx,DWORD PTR [ebp-0xc]
c00011ef:	89 d0                	mov    eax,edx
c00011f1:	c1 e0 02             	shl    eax,0x2
c00011f4:	01 d0                	add    eax,edx
c00011f6:	c1 e0 02             	shl    eax,0x2
c00011f9:	89 c2                	mov    edx,eax
c00011fb:	8b 45 08             	mov    eax,DWORD PTR [ebp+0x8]
c00011fe:	01 d0                	add    eax,edx
c0001200:	8b 08                	mov    ecx,DWORD PTR [eax]
c0001202:	8b 58 04             	mov    ebx,DWORD PTR [eax+0x4]
c0001205:	8b 55 f4             	mov    edx,DWORD PTR [ebp-0xc]
c0001208:	89 d0                	mov    eax,edx
c000120a:	c1 e0 02             	shl    eax,0x2
c000120d:	01 d0                	add    eax,edx
c000120f:	c1 e0 02             	shl    eax,0x2
c0001212:	89 c2                	mov    edx,eax
c0001214:	8b 45 08             	mov    eax,DWORD PTR [ebp+0x8]
c0001217:	01 d0                	add    eax,edx
c0001219:	8b 50 0c             	mov    edx,DWORD PTR [eax+0xc]
c000121c:	8b 40 08             	mov    eax,DWORD PTR [eax+0x8]
c000121f:	01 c8                	add    eax,ecx
c0001221:	11 da                	adc    edx,ebx
c0001223:	a3 a8 a2 00 c0       	mov    ds:0xc000a2a8,eax
c0001228:	89 15 ac a2 00 c0    	mov    DWORD PTR ds:0xc000a2ac,edx
c000122e:	eb 01                	jmp    c0001231 <pmm_init+0x138>
c0001230:	90                   	nop
c0001231:	83 45 f4 01          	add    DWORD PTR [ebp-0xc],0x1
c0001235:	8b 45 f4             	mov    eax,DWORD PTR [ebp-0xc]
c0001238:	3b 45 0c             	cmp    eax,DWORD PTR [ebp+0xc]
c000123b:	0f 82 f3 fe ff ff    	jb     c0001134 <pmm_init+0x3b>
c0001241:	a1 a8 a2 00 c0       	mov    eax,ds:0xc000a2a8
c0001246:	8b 15 ac a2 00 c0    	mov    edx,DWORD PTR ds:0xc000a2ac
c000124c:	8b 0d a0 a2 00 c0    	mov    ecx,DWORD PTR ds:0xc000a2a0
c0001252:	8b 1d a4 a2 00 c0    	mov    ebx,DWORD PTR ds:0xc000a2a4
c0001258:	29 c8                	sub    eax,ecx
c000125a:	19 da                	sbb    edx,ebx
c000125c:	0f ac d0 0c          	shrd   eax,edx,0xc
c0001260:	c1 ea 0c             	shr    edx,0xc
c0001263:	a3 b0 a2 00 c0       	mov    ds:0xc000a2b0,eax
c0001268:	a1 b0 a2 00 c0       	mov    eax,ds:0xc000a2b0
c000126d:	83 c0 07             	add    eax,0x7
c0001270:	c1 e8 03             	shr    eax,0x3
c0001273:	a3 98 a2 00 c0       	mov    ds:0xc000a298,eax
c0001278:	a1 00 50 00 c0       	mov    eax,ds:0xc0005000
c000127d:	05 ff 0f 00 00       	add    eax,0xfff
c0001282:	ba 00 00 00 00       	mov    edx,0x0
c0001287:	25 00 f0 ff ff       	and    eax,0xfffff000
c000128c:	ba 00 00 00 00       	mov    edx,0x0
c0001291:	a3 88 a2 00 c0       	mov    ds:0xc000a288,eax
c0001296:	89 15 8c a2 00 c0    	mov    DWORD PTR ds:0xc000a28c,edx
c000129c:	a1 88 a2 00 c0       	mov    eax,ds:0xc000a288
c00012a1:	8b 15 8c a2 00 c0    	mov    edx,DWORD PTR ds:0xc000a28c
c00012a7:	89 c2                	mov    edx,eax
c00012a9:	a1 98 a2 00 c0       	mov    eax,ds:0xc000a298
c00012ae:	01 d0                	add    eax,edx
c00012b0:	a3 90 a2 00 c0       	mov    ds:0xc000a290,eax
c00012b5:	a1 88 a2 00 c0       	mov    eax,ds:0xc000a288
c00012ba:	8b 15 8c a2 00 c0    	mov    edx,DWORD PTR ds:0xc000a28c
c00012c0:	05 00 00 00 c0       	add    eax,0xc0000000
c00012c5:	83 d2 00             	adc    edx,0x0
c00012c8:	a3 94 a2 00 c0       	mov    ds:0xc000a294,eax
c00012cd:	8b 15 98 a2 00 c0    	mov    edx,DWORD PTR ds:0xc000a298
c00012d3:	a1 94 a2 00 c0       	mov    eax,ds:0xc000a294
c00012d8:	83 ec 04             	sub    esp,0x4
c00012db:	52                   	push   edx
c00012dc:	68 ff 00 00 00       	push   0xff
c00012e1:	50                   	push   eax
c00012e2:	e8 b0 f9 ff ff       	call   c0000c97 <memsets>
c00012e7:	83 c4 10             	add    esp,0x10
c00012ea:	c7 45 f0 00 00 00 00 	mov    DWORD PTR [ebp-0x10],0x0
c00012f1:	e9 22 01 00 00       	jmp    c0001418 <pmm_init+0x31f>
c00012f6:	8b 55 f0             	mov    edx,DWORD PTR [ebp-0x10]
c00012f9:	89 d0                	mov    eax,edx
c00012fb:	c1 e0 02             	shl    eax,0x2
c00012fe:	01 d0                	add    eax,edx
c0001300:	c1 e0 02             	shl    eax,0x2
c0001303:	89 c2                	mov    edx,eax
c0001305:	8b 45 08             	mov    eax,DWORD PTR [ebp+0x8]
c0001308:	01 d0                	add    eax,edx
c000130a:	8b 40 10             	mov    eax,DWORD PTR [eax+0x10]
c000130d:	83 f8 01             	cmp    eax,0x1
c0001310:	0f 85 fd 00 00 00    	jne    c0001413 <pmm_init+0x31a>
c0001316:	8b 55 f0             	mov    edx,DWORD PTR [ebp-0x10]
c0001319:	89 d0                	mov    eax,edx
c000131b:	c1 e0 02             	shl    eax,0x2
c000131e:	01 d0                	add    eax,edx
c0001320:	c1 e0 02             	shl    eax,0x2
c0001323:	89 c2                	mov    edx,eax
c0001325:	8b 45 08             	mov    eax,DWORD PTR [ebp+0x8]
c0001328:	01 d0                	add    eax,edx
c000132a:	8b 50 04             	mov    edx,DWORD PTR [eax+0x4]
c000132d:	8b 00                	mov    eax,DWORD PTR [eax]
c000132f:	89 45 e0             	mov    DWORD PTR [ebp-0x20],eax
c0001332:	89 55 e4             	mov    DWORD PTR [ebp-0x1c],edx
c0001335:	8b 55 f0             	mov    edx,DWORD PTR [ebp-0x10]
c0001338:	89 d0                	mov    eax,edx
c000133a:	c1 e0 02             	shl    eax,0x2
c000133d:	01 d0                	add    eax,edx
c000133f:	c1 e0 02             	shl    eax,0x2
c0001342:	89 c2                	mov    edx,eax
c0001344:	8b 45 08             	mov    eax,DWORD PTR [ebp+0x8]
c0001347:	01 d0                	add    eax,edx
c0001349:	8b 50 0c             	mov    edx,DWORD PTR [eax+0xc]
c000134c:	8b 40 08             	mov    eax,DWORD PTR [eax+0x8]
c000134f:	89 45 d8             	mov    DWORD PTR [ebp-0x28],eax
c0001352:	89 55 dc             	mov    DWORD PTR [ebp-0x24],edx
c0001355:	8b 45 e0             	mov    eax,DWORD PTR [ebp-0x20]
c0001358:	8b 55 e4             	mov    edx,DWORD PTR [ebp-0x1c]
c000135b:	89 45 e8             	mov    DWORD PTR [ebp-0x18],eax
c000135e:	89 55 ec             	mov    DWORD PTR [ebp-0x14],edx
c0001361:	e9 8d 00 00 00       	jmp    c00013f3 <pmm_init+0x2fa>
c0001366:	a1 00 50 00 c0       	mov    eax,ds:0xc0005000
c000136b:	ba 00 00 00 00       	mov    edx,0x0
c0001370:	8b 4d ec             	mov    ecx,DWORD PTR [ebp-0x14]
c0001373:	39 45 e8             	cmp    DWORD PTR [ebp-0x18],eax
c0001376:	19 d1                	sbb    ecx,edx
c0001378:	72 6a                	jb     c00013e4 <pmm_init+0x2eb>
c000137a:	a1 88 a2 00 c0       	mov    eax,ds:0xc000a288
c000137f:	8b 15 8c a2 00 c0    	mov    edx,DWORD PTR ds:0xc000a28c
c0001385:	8b 4d ec             	mov    ecx,DWORD PTR [ebp-0x14]
c0001388:	39 45 e8             	cmp    DWORD PTR [ebp-0x18],eax
c000138b:	19 d1                	sbb    ecx,edx
c000138d:	72 25                	jb     c00013b4 <pmm_init+0x2bb>
c000138f:	a1 98 a2 00 c0       	mov    eax,ds:0xc000a298
c0001394:	89 c1                	mov    ecx,eax
c0001396:	bb 00 00 00 00       	mov    ebx,0x0
c000139b:	a1 88 a2 00 c0       	mov    eax,ds:0xc000a288
c00013a0:	8b 15 8c a2 00 c0    	mov    edx,DWORD PTR ds:0xc000a28c
c00013a6:	01 c8                	add    eax,ecx
c00013a8:	11 da                	adc    edx,ebx
c00013aa:	8b 4d ec             	mov    ecx,DWORD PTR [ebp-0x14]
c00013ad:	39 45 e8             	cmp    DWORD PTR [ebp-0x18],eax
c00013b0:	19 d1                	sbb    ecx,edx
c00013b2:	72 33                	jb     c00013e7 <pmm_init+0x2ee>
c00013b4:	8b 0d a0 a2 00 c0    	mov    ecx,DWORD PTR ds:0xc000a2a0
c00013ba:	8b 1d a4 a2 00 c0    	mov    ebx,DWORD PTR ds:0xc000a2a4
c00013c0:	8b 45 e8             	mov    eax,DWORD PTR [ebp-0x18]
c00013c3:	8b 55 ec             	mov    edx,DWORD PTR [ebp-0x14]
c00013c6:	29 c8                	sub    eax,ecx
c00013c8:	19 da                	sbb    edx,ebx
c00013ca:	0f ac d0 0c          	shrd   eax,edx,0xc
c00013ce:	c1 ea 0c             	shr    edx,0xc
c00013d1:	89 45 d4             	mov    DWORD PTR [ebp-0x2c],eax
c00013d4:	83 ec 0c             	sub    esp,0xc
c00013d7:	ff 75 d4             	push   DWORD PTR [ebp-0x2c]
c00013da:	e8 06 03 00 00       	call   c00016e5 <bitmap_clear>
c00013df:	83 c4 10             	add    esp,0x10
c00013e2:	eb 04                	jmp    c00013e8 <pmm_init+0x2ef>
c00013e4:	90                   	nop
c00013e5:	eb 01                	jmp    c00013e8 <pmm_init+0x2ef>
c00013e7:	90                   	nop
c00013e8:	81 45 e8 00 10 00 00 	add    DWORD PTR [ebp-0x18],0x1000
c00013ef:	83 55 ec 00          	adc    DWORD PTR [ebp-0x14],0x0
c00013f3:	8b 4d e0             	mov    ecx,DWORD PTR [ebp-0x20]
c00013f6:	8b 5d e4             	mov    ebx,DWORD PTR [ebp-0x1c]
c00013f9:	8b 45 d8             	mov    eax,DWORD PTR [ebp-0x28]
c00013fc:	8b 55 dc             	mov    edx,DWORD PTR [ebp-0x24]
c00013ff:	01 c8                	add    eax,ecx
c0001401:	11 da                	adc    edx,ebx
c0001403:	8b 4d ec             	mov    ecx,DWORD PTR [ebp-0x14]
c0001406:	39 45 e8             	cmp    DWORD PTR [ebp-0x18],eax
c0001409:	19 d1                	sbb    ecx,edx
c000140b:	0f 82 55 ff ff ff    	jb     c0001366 <pmm_init+0x26d>
c0001411:	eb 01                	jmp    c0001414 <pmm_init+0x31b>
c0001413:	90                   	nop
c0001414:	83 45 f0 01          	add    DWORD PTR [ebp-0x10],0x1
c0001418:	8b 45 f0             	mov    eax,DWORD PTR [ebp-0x10]
c000141b:	3b 45 0c             	cmp    eax,DWORD PTR [ebp+0xc]
c000141e:	0f 82 d2 fe ff ff    	jb     c00012f6 <pmm_init+0x1fd>
c0001424:	83 ec 0c             	sub    esp,0xc
c0001427:	6a 00                	push   0x0
c0001429:	e8 6d 02 00 00       	call   c000169b <bitmap_set>
c000142e:	83 c4 10             	add    esp,0x10
c0001431:	90                   	nop
c0001432:	8b 5d fc             	mov    ebx,DWORD PTR [ebp-0x4]
c0001435:	c9                   	leave
c0001436:	c3                   	ret

c0001437 <pmm_alloc_page>:
c0001437:	55                   	push   ebp
c0001438:	89 e5                	mov    ebp,esp
c000143a:	83 ec 18             	sub    esp,0x18
c000143d:	83 ec 0c             	sub    esp,0xc
c0001440:	68 24 35 00 c0       	push   0xc0003524
c0001445:	e8 1c f5 ff ff       	call   c0000966 <write_serial_string>
c000144a:	83 c4 10             	add    esp,0x10
c000144d:	c7 45 f4 00 00 00 00 	mov    DWORD PTR [ebp-0xc],0x0
c0001454:	e9 9a 00 00 00       	jmp    c00014f3 <pmm_alloc_page+0xbc>
c0001459:	83 ec 0c             	sub    esp,0xc
c000145c:	ff 75 f4             	push   DWORD PTR [ebp-0xc]
c000145f:	e8 cd 02 00 00       	call   c0001731 <bitmap_test>
c0001464:	83 c4 10             	add    esp,0x10
c0001467:	85 c0                	test   eax,eax
c0001469:	0f 85 80 00 00 00    	jne    c00014ef <pmm_alloc_page+0xb8>
c000146f:	83 ec 0c             	sub    esp,0xc
c0001472:	68 3c 35 00 c0       	push   0xc000353c
c0001477:	e8 ea f4 ff ff       	call   c0000966 <write_serial_string>
c000147c:	83 c4 10             	add    esp,0x10
c000147f:	83 ec 0c             	sub    esp,0xc
c0001482:	ff 75 f4             	push   DWORD PTR [ebp-0xc]
c0001485:	e8 d4 f5 ff ff       	call   c0000a5e <serial_write_hex32>
c000148a:	83 c4 10             	add    esp,0x10
c000148d:	83 ec 0c             	sub    esp,0xc
c0001490:	68 64 35 00 c0       	push   0xc0003564
c0001495:	e8 cc f4 ff ff       	call   c0000966 <write_serial_string>
c000149a:	83 c4 10             	add    esp,0x10
c000149d:	83 ec 0c             	sub    esp,0xc
c00014a0:	ff 75 f4             	push   DWORD PTR [ebp-0xc]
c00014a3:	e8 f3 01 00 00       	call   c000169b <bitmap_set>
c00014a8:	83 c4 10             	add    esp,0x10
c00014ab:	83 ec 0c             	sub    esp,0xc
c00014ae:	ff 75 f4             	push   DWORD PTR [ebp-0xc]
c00014b1:	e8 bb 02 00 00       	call   c0001771 <page_to_addr>
c00014b6:	83 c4 10             	add    esp,0x10
c00014b9:	89 45 f0             	mov    DWORD PTR [ebp-0x10],eax
c00014bc:	83 ec 0c             	sub    esp,0xc
c00014bf:	68 68 35 00 c0       	push   0xc0003568
c00014c4:	e8 9d f4 ff ff       	call   c0000966 <write_serial_string>
c00014c9:	83 c4 10             	add    esp,0x10
c00014cc:	83 ec 0c             	sub    esp,0xc
c00014cf:	ff 75 f0             	push   DWORD PTR [ebp-0x10]
c00014d2:	e8 87 f5 ff ff       	call   c0000a5e <serial_write_hex32>
c00014d7:	83 c4 10             	add    esp,0x10
c00014da:	83 ec 0c             	sub    esp,0xc
c00014dd:	68 64 35 00 c0       	push   0xc0003564
c00014e2:	e8 7f f4 ff ff       	call   c0000966 <write_serial_string>
c00014e7:	83 c4 10             	add    esp,0x10
c00014ea:	8b 45 f0             	mov    eax,DWORD PTR [ebp-0x10]
c00014ed:	eb 37                	jmp    c0001526 <pmm_alloc_page+0xef>
c00014ef:	83 45 f4 01          	add    DWORD PTR [ebp-0xc],0x1
c00014f3:	a1 b0 a2 00 c0       	mov    eax,ds:0xc000a2b0
c00014f8:	39 45 f4             	cmp    DWORD PTR [ebp-0xc],eax
c00014fb:	0f 82 58 ff ff ff    	jb     c0001459 <pmm_alloc_page+0x22>
c0001501:	83 ec 0c             	sub    esp,0xc
c0001504:	68 98 35 00 c0       	push   0xc0003598
c0001509:	e8 58 f4 ff ff       	call   c0000966 <write_serial_string>
c000150e:	83 c4 10             	add    esp,0x10
c0001511:	83 ec 0c             	sub    esp,0xc
c0001514:	68 bd 35 00 c0       	push   0xc00035bd
c0001519:	e8 7a f8 ff ff       	call   c0000d98 <panic>
c000151e:	83 c4 10             	add    esp,0x10
c0001521:	b8 00 00 00 00       	mov    eax,0x0
c0001526:	c9                   	leave
c0001527:	c3                   	ret

c0001528 <pmm_free_page>:
c0001528:	55                   	push   ebp
c0001529:	89 e5                	mov    ebp,esp
c000152b:	53                   	push   ebx
c000152c:	83 ec 14             	sub    esp,0x14
c000152f:	8b 4d 08             	mov    ecx,DWORD PTR [ebp+0x8]
c0001532:	bb 00 00 00 00       	mov    ebx,0x0
c0001537:	a1 a0 a2 00 c0       	mov    eax,ds:0xc000a2a0
c000153c:	8b 15 a4 a2 00 c0    	mov    edx,DWORD PTR ds:0xc000a2a4
c0001542:	39 c1                	cmp    ecx,eax
c0001544:	19 d3                	sbb    ebx,edx
c0001546:	72 57                	jb     c000159f <pmm_free_page+0x77>
c0001548:	8b 4d 08             	mov    ecx,DWORD PTR [ebp+0x8]
c000154b:	bb 00 00 00 00       	mov    ebx,0x0
c0001550:	a1 a8 a2 00 c0       	mov    eax,ds:0xc000a2a8
c0001555:	8b 15 ac a2 00 c0    	mov    edx,DWORD PTR ds:0xc000a2ac
c000155b:	39 c1                	cmp    ecx,eax
c000155d:	19 d3                	sbb    ebx,edx
c000155f:	73 3e                	jae    c000159f <pmm_free_page+0x77>
c0001561:	8b 45 08             	mov    eax,DWORD PTR [ebp+0x8]
c0001564:	25 ff 0f 00 00       	and    eax,0xfff
c0001569:	85 c0                	test   eax,eax
c000156b:	75 35                	jne    c00015a2 <pmm_free_page+0x7a>
c000156d:	8b 45 08             	mov    eax,DWORD PTR [ebp+0x8]
c0001570:	ba 00 00 00 00       	mov    edx,0x0
c0001575:	8b 0d a0 a2 00 c0    	mov    ecx,DWORD PTR ds:0xc000a2a0
c000157b:	8b 1d a4 a2 00 c0    	mov    ebx,DWORD PTR ds:0xc000a2a4
c0001581:	29 c8                	sub    eax,ecx
c0001583:	19 da                	sbb    edx,ebx
c0001585:	0f ac d0 0c          	shrd   eax,edx,0xc
c0001589:	c1 ea 0c             	shr    edx,0xc
c000158c:	89 45 f4             	mov    DWORD PTR [ebp-0xc],eax
c000158f:	83 ec 0c             	sub    esp,0xc
c0001592:	ff 75 f4             	push   DWORD PTR [ebp-0xc]
c0001595:	e8 4b 01 00 00       	call   c00016e5 <bitmap_clear>
c000159a:	83 c4 10             	add    esp,0x10
c000159d:	eb 04                	jmp    c00015a3 <pmm_free_page+0x7b>
c000159f:	90                   	nop
c00015a0:	eb 01                	jmp    c00015a3 <pmm_free_page+0x7b>
c00015a2:	90                   	nop
c00015a3:	8b 5d fc             	mov    ebx,DWORD PTR [ebp-0x4]
c00015a6:	c9                   	leave
c00015a7:	c3                   	ret

c00015a8 <pmm_mark_region_used>:
c00015a8:	55                   	push   ebp
c00015a9:	89 e5                	mov    ebp,esp
c00015ab:	53                   	push   ebx
c00015ac:	83 ec 14             	sub    esp,0x14
c00015af:	8b 4d 08             	mov    ecx,DWORD PTR [ebp+0x8]
c00015b2:	bb 00 00 00 00       	mov    ebx,0x0
c00015b7:	a1 a0 a2 00 c0       	mov    eax,ds:0xc000a2a0
c00015bc:	8b 15 a4 a2 00 c0    	mov    edx,DWORD PTR ds:0xc000a2a4
c00015c2:	39 c1                	cmp    ecx,eax
c00015c4:	19 d3                	sbb    ebx,edx
c00015c6:	73 0e                	jae    c00015d6 <pmm_mark_region_used+0x2e>
c00015c8:	a1 a0 a2 00 c0       	mov    eax,ds:0xc000a2a0
c00015cd:	8b 15 a4 a2 00 c0    	mov    edx,DWORD PTR ds:0xc000a2a4
c00015d3:	89 45 08             	mov    DWORD PTR [ebp+0x8],eax
c00015d6:	8b 55 08             	mov    edx,DWORD PTR [ebp+0x8]
c00015d9:	8b 45 0c             	mov    eax,DWORD PTR [ebp+0xc]
c00015dc:	01 d0                	add    eax,edx
c00015de:	89 c1                	mov    ecx,eax
c00015e0:	bb 00 00 00 00       	mov    ebx,0x0
c00015e5:	a1 a8 a2 00 c0       	mov    eax,ds:0xc000a2a8
c00015ea:	8b 15 ac a2 00 c0    	mov    edx,DWORD PTR ds:0xc000a2ac
c00015f0:	39 c8                	cmp    eax,ecx
c00015f2:	89 d0                	mov    eax,edx
c00015f4:	19 d8                	sbb    eax,ebx
c00015f6:	73 11                	jae    c0001609 <pmm_mark_region_used+0x61>
c00015f8:	a1 a8 a2 00 c0       	mov    eax,ds:0xc000a2a8
c00015fd:	8b 15 ac a2 00 c0    	mov    edx,DWORD PTR ds:0xc000a2ac
c0001603:	2b 45 08             	sub    eax,DWORD PTR [ebp+0x8]
c0001606:	89 45 0c             	mov    DWORD PTR [ebp+0xc],eax
c0001609:	8b 45 08             	mov    eax,DWORD PTR [ebp+0x8]
c000160c:	89 45 f4             	mov    DWORD PTR [ebp-0xc],eax
c000160f:	eb 37                	jmp    c0001648 <pmm_mark_region_used+0xa0>
c0001611:	8b 45 f4             	mov    eax,DWORD PTR [ebp-0xc]
c0001614:	ba 00 00 00 00       	mov    edx,0x0
c0001619:	8b 0d a0 a2 00 c0    	mov    ecx,DWORD PTR ds:0xc000a2a0
c000161f:	8b 1d a4 a2 00 c0    	mov    ebx,DWORD PTR ds:0xc000a2a4
c0001625:	29 c8                	sub    eax,ecx
c0001627:	19 da                	sbb    edx,ebx
c0001629:	0f ac d0 0c          	shrd   eax,edx,0xc
c000162d:	c1 ea 0c             	shr    edx,0xc
c0001630:	89 45 f0             	mov    DWORD PTR [ebp-0x10],eax
c0001633:	83 ec 0c             	sub    esp,0xc
c0001636:	ff 75 f0             	push   DWORD PTR [ebp-0x10]
c0001639:	e8 5d 00 00 00       	call   c000169b <bitmap_set>
c000163e:	83 c4 10             	add    esp,0x10
c0001641:	81 45 f4 00 10 00 00 	add    DWORD PTR [ebp-0xc],0x1000
c0001648:	8b 55 08             	mov    edx,DWORD PTR [ebp+0x8]
c000164b:	8b 45 0c             	mov    eax,DWORD PTR [ebp+0xc]
c000164e:	01 d0                	add    eax,edx
c0001650:	39 45 f4             	cmp    DWORD PTR [ebp-0xc],eax
c0001653:	72 bc                	jb     c0001611 <pmm_mark_region_used+0x69>
c0001655:	90                   	nop
c0001656:	90                   	nop
c0001657:	8b 5d fc             	mov    ebx,DWORD PTR [ebp-0x4]
c000165a:	c9                   	leave
c000165b:	c3                   	ret

c000165c <pmm_get_free_page_count>:
c000165c:	55                   	push   ebp
c000165d:	89 e5                	mov    ebp,esp
c000165f:	83 ec 18             	sub    esp,0x18
c0001662:	c7 45 f4 00 00 00 00 	mov    DWORD PTR [ebp-0xc],0x0
c0001669:	c7 45 f0 00 00 00 00 	mov    DWORD PTR [ebp-0x10],0x0
c0001670:	eb 1a                	jmp    c000168c <pmm_get_free_page_count+0x30>
c0001672:	83 ec 0c             	sub    esp,0xc
c0001675:	ff 75 f0             	push   DWORD PTR [ebp-0x10]
c0001678:	e8 b4 00 00 00       	call   c0001731 <bitmap_test>
c000167d:	83 c4 10             	add    esp,0x10
c0001680:	85 c0                	test   eax,eax
c0001682:	75 04                	jne    c0001688 <pmm_get_free_page_count+0x2c>
c0001684:	83 45 f4 01          	add    DWORD PTR [ebp-0xc],0x1
c0001688:	83 45 f0 01          	add    DWORD PTR [ebp-0x10],0x1
c000168c:	a1 b0 a2 00 c0       	mov    eax,ds:0xc000a2b0
c0001691:	39 45 f0             	cmp    DWORD PTR [ebp-0x10],eax
c0001694:	72 dc                	jb     c0001672 <pmm_get_free_page_count+0x16>
c0001696:	8b 45 f4             	mov    eax,DWORD PTR [ebp-0xc]
c0001699:	c9                   	leave
c000169a:	c3                   	ret

c000169b <bitmap_set>:
